################################################################################
#                                                                              #
#      IAR Universal Linker V6.4.6.89                                          #
#                                                                              #
#           Link time     =  24/Apr/2020  17:14:01                             #
#           Target CPU    =  x51                                               #
#           List file     =  "E:\Neocore\Hardware\PRG Transmiter\Debug\List\tr #
#                            ansmiter.map"                                     #
#           Output file 1 =  "E:\Neocore\Hardware\PRG Transmiter\Debug\Exe\tra #
#                            nsmiter.d51"                                      #
#                            Format: ubrof10                                   #
#                            UBROF version 10.0.6                              #
#                            Using library modules for C-SPY (-rt)             #
#           Command line  =  -f                                                #
#                            C:\Users\08A4~1\AppData\Local\Temp\EWCB4D.tmp     #
#                            ("E:\Neocore\Hardware\PRG Transmiter\Debug\Obj\ac #
#                            tion_manager.r51"                                 #
#                            "E:\Neocore\Hardware\PRG Transmiter\Debug\Obj\ala #
#                            rm_timer.r51"                                     #
#                            "E:\Neocore\Hardware\PRG Transmiter\Debug\Obj\cmd #
#                            _0x00.r51"                                        #
#                            "E:\Neocore\Hardware\PRG Transmiter\Debug\Obj\cmd #
#                            _0x01.r51"                                        #
#                            "E:\Neocore\Hardware\PRG Transmiter\Debug\Obj\cmd #
#                            _0x02.r51"                                        #
#                            "E:\Neocore\Hardware\PRG Transmiter\Debug\Obj\cmd #
#                            _0x03.r51"                                        #
#                            "E:\Neocore\Hardware\PRG Transmiter\Debug\Obj\cmd #
#                            _0x04.r51"                                        #
#                            "E:\Neocore\Hardware\PRG Transmiter\Debug\Obj\cmd #
#                            _0x05.r51"                                        #
#                            "E:\Neocore\Hardware\PRG Transmiter\Debug\Obj\cmd #
#                            _0x06.r51"                                        #
#                            "E:\Neocore\Hardware\PRG Transmiter\Debug\Obj\cmd #
#                            _0x07.r51"                                        #
#                            "E:\Neocore\Hardware\PRG Transmiter\Debug\Obj\cmd #
#                            _0x08.r51"                                        #
#                            "E:\Neocore\Hardware\PRG Transmiter\Debug\Obj\cmd #
#                            _0x09.r51"                                        #
#                            "E:\Neocore\Hardware\PRG Transmiter\Debug\Obj\cmd #
#                            _0x0A.r51"                                        #
#                            "E:\Neocore\Hardware\PRG Transmiter\Debug\Obj\cmd #
#                            _0x0B.r51"                                        #
#                            "E:\Neocore\Hardware\PRG Transmiter\Debug\Obj\cmd #
#                            _0x0C.r51"                                        #
#                            "E:\Neocore\Hardware\PRG Transmiter\Debug\Obj\cmd #
#                            _0x0D.r51"                                        #
#                            "E:\Neocore\Hardware\PRG Transmiter\Debug\Obj\cmd #
#                            _0x0E.r51"                                        #
#                            "E:\Neocore\Hardware\PRG Transmiter\Debug\Obj\cmd #
#                            _0x0F.r51"                                        #
#                            "E:\Neocore\Hardware\PRG Transmiter\Debug\Obj\cmd #
#                            _0x10.r51"                                        #
#                            "E:\Neocore\Hardware\PRG Transmiter\Debug\Obj\cmd #
#                            _0x11.r51"                                        #
#                            "E:\Neocore\Hardware\PRG Transmiter\Debug\Obj\cmd #
#                            _parser.r51"                                      #
#                            "E:\Neocore\Hardware\PRG Transmiter\Debug\Obj\cod #
#                            er.r51"                                           #
#                            "E:\Neocore\Hardware\PRG Transmiter\Debug\Obj\cpu #
#                            .r51"                                             #
#                            "E:\Neocore\Hardware\PRG Transmiter\Debug\Obj\deb #
#                            ug.r51"                                           #
#                            "E:\Neocore\Hardware\PRG Transmiter\Debug\Obj\dma #
#                            .r51"                                             #
#                            "E:\Neocore\Hardware\PRG Transmiter\Debug\Obj\fra #
#                            me.r51"                                           #
#                            "E:\Neocore\Hardware\PRG Transmiter\Debug\Obj\led #
#                            .r51"                                             #
#                            "E:\Neocore\Hardware\PRG Transmiter\Debug\Obj\llc #
#                            .r51"                                             #
#                            "E:\Neocore\Hardware\PRG Transmiter\Debug\Obj\mac #
#                            .r51"                                             #
#                            "E:\Neocore\Hardware\PRG Transmiter\Debug\Obj\mai #
#                            n.r51"                                            #
#                            "E:\Neocore\Hardware\PRG Transmiter\Debug\Obj\mem #
#                            _slots.r51"                                       #
#                            "E:\Neocore\Hardware\PRG Transmiter\Debug\Obj\mem #
#                            _utils.r51"                                       #
#                            "E:\Neocore\Hardware\PRG Transmiter\Debug\Obj\mod #
#                            el.r51"                                           #
#                            "E:\Neocore\Hardware\PRG Transmiter\Debug\Obj\rad #
#                            io.r51"                                           #
#                            "E:\Neocore\Hardware\PRG Transmiter\Debug\Obj\rtc #
#                            .r51"                                             #
#                            "E:\Neocore\Hardware\PRG Transmiter\Debug\Obj\syn #
#                            c.r51"                                            #
#                            "E:\Neocore\Hardware\PRG Transmiter\Debug\Obj\tim #
#                            e_manager.r51"                                    #
#                            "E:\Neocore\Hardware\PRG Transmiter\Debug\Obj\uar #
#                            t_comm.r51"                                       #
#                            "E:\Neocore\Hardware\PRG Transmiter\Debug\Obj\ust #
#                            imer.r51"                                         #
#                            -o                                                #
#                            "E:\Neocore\Hardware\PRG Transmiter\Debug\Exe\tra #
#                            nsmiter.d51"                                      #
#                            -l                                                #
#                            "E:\Neocore\Hardware\PRG Transmiter\Debug\List\tr #
#                            ansmiter.map"                                     #
#                            -xms                                              #
#                            "-IC:\Program Files (x86)\IAR Systems\Embedded Wo #
#                            rkbench 8.0\8051\LIB\"                            #
#                            -f                                                #
#                            "C:\Program Files (x86)\IAR Systems\Embedded Work #
#                            bench 8.0\8051\config\devices\Texas Instruments\l #
#                            nk51ew_CC2530F256_banked.xcl"                     #
#                            (-D_IDATA0_START=0x00 -D_IDATA0_END=0xFF          #
#                            -D_PDATA0_START=0x1E00 -D_PDATA0_END=0x1EFF       #
#                            -D_IXDATA0_START=0x0001 -D_IXDATA0_END=0x1EFF     #
#                            -D_XDATA0_START=_IXDATA0_START                    #
#                            -D_XDATA0_END=_IXDATA0_END                        #
#                            -D_NEAR_CODE_START=0x0000                         #
#                            -D_FIRST_BANK_ADDR=0x10000 -D?REGISTER_BANK=0x0   #
#                            -D_REGISTER_BANK_START=0x0 -D_BREG_START=0x00     #
#                            -D?VB=0x20 -Z(BIT)BREG=_BREG_START                #
#                            -Z(BIT)BIT_N=0-7F                                 #
#                            -Z(DATA)REGISTERS+8=_REGISTER_BANK_START          #
#                            -Z(DATA)BDATA_Z,BDATA_N,BDATA_I=20-2F             #
#                            -Z(DATA)VREG=08-7F -Z(DATA)PSP,XSP=08-7F          #
#                            -Z(DATA)DOVERLAY=08-7F                            #
#                            -Z(DATA)DATA_I,DATA_Z,DATA_N=08-7F                #
#                            -U(IDATA)0-7F=(DATA)0-7F                          #
#                            -Z(IDATA)IDATA_I,IDATA_Z,IDATA_N=08-_IDATA0_END   #
#                            -Z(IDATA)ISTACK+_IDATA_STACK_SIZE#08-_IDATA0_END  #
#                            -Z(IDATA)IOVERLAY=08-FF -Z(CODE)INTVEC=0          #
#                            -Z(CODE)CSTART=_NEAR_CODE_START-(_CODEBANK_START- #
#                            1)                                                #
#                            -Z(CODE)BIT_ID,BDATA_ID,DATA_ID,IDATA_ID,IXDATA_I #
#                            D,PDATA_ID,XDATA_ID=_NEAR_CODE_START-(_CODEBANK_S #
#                            TART-1)                                           #
#                            -Z(CODE)BANK_RELAYS,RCODE,DIFUNCT,CODE_C,CODE_N,N #
#                            EAR_CODE=_NEAR_CODE_START-(_CODEBANK_START-1)     #
#                            -P(CODE)BANKED_CODE=_NEAR_CODE_START-(_CODEBANK_S #
#                            TART-1),[(_CODEBANK_START+_FIRST_BANK_ADDR)-(_COD #
#                            EBANK_END+_FIRST_BANK_ADDR)]*_NR_OF_BANKS+10000   #
#                            -Z(CODE)CHECKSUM#(_CODEBANK_START-1)              #
#                            -Z(XDATA)PDATA_Z,PDATA_I=_PDATA0_START-_PDATA0_EN #
#                            D                                                 #
#                            -P(XDATA)PDATA_N=_PDATA0_START-_PDATA0_END        #
#                            -Z(XDATA)PSTACK+_PDATA_STACK_SIZE=_PDATA0_START-_ #
#                            PDATA0_END                                        #
#                            -Z(XDATA)EXT_STACK+_EXTENDED_STACK_SIZE=_EXTENDED #
#                            _STACK_START                                      #
#                            -Z(XDATA)XSTACK+_XDATA_STACK_SIZE=_XDATA0_START-_ #
#                            XDATA0_END                                        #
#                            -Z(XDATA)IXDATA_Z,IXDATA_I=_IXDATA0_START-_IXDATA #
#                            0_END                                             #
#                            -P(XDATA)IXDATA_N=_IXDATA0_START-_IXDATA0_END     #
#                            -Z(XDATA)XDATA_Z,XDATA_I=_XDATA0_START-_XDATA0_EN #
#                            D                                                 #
#                            -P(XDATA)XDATA_N=_XDATA0_START-_XDATA0_END        #
#                            -Z(XDATA)XDATA_HEAP+_XDATA_HEAP_SIZE=_XDATA0_STAR #
#                            T-_XDATA0_END                                     #
#                            -Z(CONST)XDATA_ROM_C=_XDATA0_START-_XDATA0_END    #
#                            -cx51                                             #
#                            -M(CODE)[(_CODEBANK_START+_FIRST_BANK_ADDR)-(_COD #
#                            EBANK_END+_FIRST_BANK_ADDR)]*_NR_OF_BANKS+0x10000 #
#                            =0x8000                                           #
#                            -ww69=i -D_BANK0_START=0x00000                    #
#                            -D_BANK0_END=0x07FFF -D_BANK1_START=0x18000       #
#                            -D_BANK1_END=0x1FFFF -D_BANK2_START=0x28000       #
#                            -D_BANK2_END=0x2FFFF -D_BANK3_START=0x38000       #
#                            -D_BANK3_END=0x3FFFF -D_BANK4_START=0x48000       #
#                            -D_BANK4_END=0x4FFFF -D_BANK5_START=0x58000       #
#                            -D_BANK5_END=0x5FFFF -D_BANK6_START=0x68000       #
#                            -D_BANK6_END=0x6FFFF -D_BANK7_START=0x78000       #
#                            -D_BANK7_END=0x7FFFF                              #
#                            -P(CODE)BANK0=_BANK0_START-_BANK0_END             #
#                            -P(CODE)BANK1=_BANK1_START-_BANK1_END             #
#                            -P(CODE)BANK2=_BANK2_START-_BANK2_END             #
#                            -P(CODE)BANK3=_BANK3_START-_BANK3_END             #
#                            -P(CODE)BANK4=_BANK4_START-_BANK4_END             #
#                            -P(CODE)BANK5=_BANK5_START-_BANK5_END             #
#                            -P(CODE)BANK6=_BANK6_START-_BANK6_END             #
#                            -P(CODE)BANK7=_BANK7_START-_BANK7_END             #
#                            -D_FLASH_LOCK_BITS_START=0x7FFF0                  #
#                            -D_FLASH_LOCK_BITS_END=0x7FFFF                    #
#                            -Z(CODE)FLASH_LOCK_BITS=_FLASH_LOCK_BITS_START-_F #
#                            LASH_LOCK_BITS_END                                #
#                            -U(CODE)0x0000=(CODE)_FLASH_LOCK_BITS_START-_FLAS #
#                            H_LOCK_BITS_END)                                  #
#                            -D_NR_OF_VIRTUAL_REGISTERS=8 -D?PBANK=0x93        #
#                            -D?CBANK=0x9F -D?CBANK_MASK=0xFF                  #
#                            -e?BCALL_FF=?BCALL -e?BRET_FF=?BRET               #
#                            -e?BDISPATCH_FF=?BDISPATCH                        #
#                            -D_CODEBANK_START=0x8000 -D_CODEBANK_END=0xFFFF   #
#                            -D_NR_OF_BANKS=0x07                               #
#                            "-IC:\Program Files (x86)\IAR Systems\Embedded Wo #
#                            rkbench 8.0\8051\CONFIG\"                         #
#                            -rt -s __program_start                            #
#                            "C:\Program Files (x86)\IAR Systems\Embedded Work #
#                            bench 8.0\8051\LIB\CLIB\cl-pli-blxc-1e16x01.r51"  #
#                            -D_IDATA_STACK_SIZE=0x80 -D?ESP=0 -D?ESP_MASK=0   #
#                            -D_EXTENDED_STACK_START=0                         #
#                            -D_EXTENDED_STACK_SIZE=0                          #
#                            -D_PDATA_STACK_SIZE=0x80                          #
#                            -D_XDATA_STACK_SIZE=0x300                         #
#                            -D_XDATA_HEAP_SIZE=0x00 -D_FAR_HEAP_SIZE=0xFFF    #
#                            -D_HUGE_HEAP_SIZE=0xFFF                           #
#                            -D_FAR22_HEAP_SIZE=0xFFF)                         #
#                                                                              #
#                           Copyright (C) 1987-2016 IAR Systems AB.            #
################################################################################





                ****************************************
                *                                      *
                *           CROSS REFERENCE            *
                *                                      *
                ****************************************

       Program entry at : CODE      0000007F  Relocatable, from module : CSTARTUP




                ****************************************
                *                                      *
                *            RUNTIME MODEL             *
                *                                      *
                ****************************************

  __SystemLibrary          = CLib
  __calling_convention     = xdata_reentrant
  __code_model             = banked
  __core                   = plain
  __data_model             = large
  __dptr_size              = 16
  __extended_stack         = disabled
  __location_for_constants = code
  __number_of_dptrs        = 1
  __register_banks         = *
  __rt_version             = 1

                ****************************************
                *                                      *
                *    AUTOMATIC SYMBOL REDIRECTIONS     *
                *                                      *
                ****************************************

                  There are no automatic symbol redirections.



                ****************************************
                *                                      *
                *              MODULE MAP              *
                *                                      *
                ****************************************


  DEFINED ABSOLUTE ENTRIES
    *************************************************************************

  DEFINED ABSOLUTE ENTRIES
  PROGRAM MODULE, NAME : ?ABS_ENTRY_MOD

Absolute parts
           ENTRY                   ADDRESS         REF BY
           =====                   =======         ======
           _FAR22_HEAP_SIZE        00000FFF 
           _HUGE_HEAP_SIZE         00000FFF 
           _FAR_HEAP_SIZE          00000FFF 
           _XDATA_HEAP_SIZE        00000000 
           _XDATA_STACK_SIZE       00000300 
           _PDATA_STACK_SIZE       00000080 
           _EXTENDED_STACK_SIZE    00000000 
           _EXTENDED_STACK_START   00000000 
           ?ESP_MASK               00000000 
           ?ESP                    00000000 
           _IDATA_STACK_SIZE       00000080 
           _NR_OF_BANKS            00000007 
           _CODEBANK_END           0000FFFF 
           _CODEBANK_START         00008000 
           ?CBANK_MASK             000000FF 
           ?CBANK                  0000009F        ?LONGJMP_XDATA (?LONGJMP_XDATA)
                                                   ?RESET_CODE_BANK (CSTARTUP)
                                                   ?SETJMP_XDATA (?SETJMP_XDATA)
                                                   Segment part 0 (?BANKED_CODE_SUPPORT)
           ?PBANK                  00000093        ?RESET_PDATA_BANK (CSTARTUP)
           _NR_OF_VIRTUAL_REGISTERS
                                   00000008 
           _FLASH_LOCK_BITS_END    0003FFFF 
           _FLASH_LOCK_BITS_START
                                   0003FFF0 
           _BANK7_END              0003FFFF 
           _BANK7_START            00038000 
           _BANK6_END              00037FFF 
           _BANK6_START            00030000 
           _BANK5_END              0002FFFF 
           _BANK5_START            00028000 
           _BANK4_END              00027FFF 
           _BANK4_START            00020000 
           _BANK3_END              0001FFFF 
           _BANK3_START            00018000 
           _BANK2_END              00017FFF 
           _BANK2_START            00010000 
           _BANK1_END              0000FFFF 
           _BANK1_START            00008000 
           _BANK0_END              00007FFF 
           _BANK0_START            00000000 
           ?VB                     00000020        ?BANKED_ENTER_XDATA (?BANKED_ENTER_XDATA)
                                                   ?BANKED_LEAVE_XDATA (?BANKED_LEAVE_XDATA)
                                                   ?INTERRUPT_ENTER_XSP (?INTERRUPT_ENTER_XSP)
                                                   ?INTERRUPT_LEAVE_XSP (?INTERRUPT_LEAVE_XSP)
                                                   ?LONGJMP_XDATA (?LONGJMP_XDATA)
                                                   ?SETJMP_XDATA (?SETJMP_XDATA)
                                                   AES_StreamCoder (action_manager)
                                                   AT_enable (action_manager)
                                                   MAC_Send (action_manager)
                                                   RI_Receive (action_manager)
                                                   RI_Send (action_manager)
                                                   RI_Send_time (action_manager)
                                                   RecvData (action_manager)
                                                   SL_free (action_manager)
                                                   SendData (action_manager)
                                                   _formatted_write_P (?largewr_p)
                                                   cmd_0x0B (action_manager)
                                                   cmd_0x0D (action_manager)
                                                   send_sync (action_manager)
           _BREG_START             00000000 
           _REGISTER_BANK_START    00000000 
           ?REGISTER_BANK          00000000        Segment part 6 (CSTARTUP)
           _FIRST_BANK_ADDR        00010000 
           _NEAR_CODE_START        00000000 
           _XDATA0_END             00001EFF 
           _XDATA0_START           00000001 
           _IXDATA0_END            00001EFF 
           _IXDATA0_START          00000001 
           _PDATA0_END             00001EFF 
           _PDATA0_START           00001E00 
           _IDATA0_END             000000FF 
           _IDATA0_START           00000000 
    *************************************************************************

  FILE NAME : E:\Neocore\Hardware\PRG Transmiter\Debug\Obj\action_manager.r51
  PROGRAM MODULE, NAME : action_manager

  SEGMENTS IN THE MODULE
  ======================
SFR_AN
  Relative segment, address: DATA 00000086 - 00000086 (0x1 bytes), align: 0
  Segment part 1. ROOT        Intra module refs:   putchar
                                                   uart_init
           ENTRY                   ADDRESS         REF BY
           =====                   =======         ======
           U0CSR                   00000086 
    -------------------------------------------------------------------------
SFR_AN
  Relative segment, address: DATA 00000087 - 00000087 (0x1 bytes), align: 0
  Segment part 2. ROOT        Intra module refs:   mcu_sleep
           ENTRY                   ADDRESS         REF BY
           =====                   =======         ======
           PCON                    00000087 
    -------------------------------------------------------------------------
SFR_AN
  Relative segment, address: DATA 00000090 - 00000090 (0x1 bytes), align: 0
  Segment part 3. ROOT        Intra module refs:   HW_Init
                                                   mode_1_receive_process
                                                   mode_2_process
           ENTRY                   ADDRESS         REF BY
           =====                   =======         ======
           _A_P1                   00000090 
           LOCAL                   ADDRESS         
           =====                   =======         
           P1                      00000090 
    -------------------------------------------------------------------------
SFR_AN
  Relative segment, address: DATA 00000091 - 00000091 (0x1 bytes), align: 0
  Segment part 4. ROOT        Intra module refs:   SendData
           ENTRY                   ADDRESS         REF BY
           =====                   =======         ======
           RFIRQF1                 00000091 
    -------------------------------------------------------------------------
SFR_AN
  Relative segment, address: DATA 00000094 - 00000094 (0x1 bytes), align: 0
  Segment part 5. ROOT        Intra module refs:   HW_Init
           ENTRY                   ADDRESS         REF BY
           =====                   =======         ======
           T2CTRL                  00000094 
    -------------------------------------------------------------------------
SFR_AN
  Relative segment, address: DATA 00000095 - 00000095 (0x1 bytes), align: 0
  Segment part 6. ROOT        Intra module refs:   AT_wait
                                                   ReadTimer
                                                   loadTimerCompare
           ENTRY                   ADDRESS         REF BY
           =====                   =======         ======
           ST0                     00000095 
    -------------------------------------------------------------------------
SFR_AN
  Relative segment, address: DATA 00000096 - 00000096 (0x1 bytes), align: 0
  Segment part 7. ROOT        Intra module refs:   AT_wait
                                                   ReadTimer
                                                   loadTimerCompare
           ENTRY                   ADDRESS         REF BY
           =====                   =======         ======
           ST1                     00000096 
    -------------------------------------------------------------------------
SFR_AN
  Relative segment, address: DATA 00000097 - 00000097 (0x1 bytes), align: 0
  Segment part 8. ROOT        Intra module refs:   AT_wait
                                                   ReadTimer
                                                   loadTimerCompare
           ENTRY                   ADDRESS         REF BY
           =====                   =======         ======
           ST2                     00000097 
    -------------------------------------------------------------------------
SFR_AN
  Relative segment, address: DATA 0000009D - 0000009D (0x1 bytes), align: 0
  Segment part 9. ROOT        Intra module refs:   AT_wait
                                                   ReadTimer
           ENTRY                   ADDRESS         REF BY
           =====                   =======         ======
           SLEEPSTA                0000009D 
    -------------------------------------------------------------------------
SFR_AN
  Relative segment, address: DATA 0000009E - 0000009E (0x1 bytes), align: 0
  Segment part 10. ROOT       Intra module refs:   HW_Init
           ENTRY                   ADDRESS         REF BY
           =====                   =======         ======
           CLKCONSTA               0000009E 
    -------------------------------------------------------------------------
SFR_AN
  Relative segment, address: DATA 000000A2 - 000000A2 (0x1 bytes), align: 0
  Segment part 11. ROOT       Intra module refs:   UST_now
           ENTRY                   ADDRESS         REF BY
           =====                   =======         ======
           T2M0                    000000A2 
    -------------------------------------------------------------------------
SFR_AN
  Relative segment, address: DATA 000000A3 - 000000A3 (0x1 bytes), align: 0
  Segment part 12. ROOT       Intra module refs:   UST_now
           ENTRY                   ADDRESS         REF BY
           =====                   =======         ======
           T2M1                    000000A3 
    -------------------------------------------------------------------------
SFR_AN
  Relative segment, address: DATA 000000A4 - 000000A4 (0x1 bytes), align: 0
  Segment part 13. ROOT       Intra module refs:   UST_now
           ENTRY                   ADDRESS         REF BY
           =====                   =======         ======
           T2MOVF0                 000000A4 
    -------------------------------------------------------------------------
SFR_AN
  Relative segment, address: DATA 000000A5 - 000000A5 (0x1 bytes), align: 0
  Segment part 14. ROOT       Intra module refs:   UST_now
           ENTRY                   ADDRESS         REF BY
           =====                   =======         ======
           T2MOVF1                 000000A5 
    -------------------------------------------------------------------------
SFR_AN
  Relative segment, address: DATA 000000A8 - 000000A8 (0x1 bytes), align: 0
  Segment part 15. ROOT       Intra module refs:   AT_enable
                                                   HW_Init
                                                   IRQEnable
                                                   SL_alloc
                                                   SL_free
                                                   SL_set_rx
                                                   SL_set_tx
                                                   TM_IRQ
                                                   __cli
                                                   isIRQEnable
           ENTRY                   ADDRESS         REF BY
           =====                   =======         ======
           _A_IEN0                 000000A8 
           LOCAL                   ADDRESS         
           =====                   =======         
           IEN0                    000000A8 
    -------------------------------------------------------------------------
SFR_AN
  Relative segment, address: DATA 000000AD - 000000AD (0x1 bytes), align: 0
  Segment part 16. ROOT       Intra module refs:   loadTimerCompare
           ENTRY                   ADDRESS         REF BY
           =====                   =======         ======
           STLOAD                  000000AD 
    -------------------------------------------------------------------------
SFR_AN
  Relative segment, address: DATA 000000B3 - 000000B3 (0x1 bytes), align: 0
  Segment part 17. ROOT       Intra module refs:   AES_StreamCoder
           ENTRY                   ADDRESS         REF BY
           =====                   =======         ======
           ENCCS                   000000B3 
    -------------------------------------------------------------------------
SFR_AN
  Relative segment, address: DATA 000000BE - 000000BE (0x1 bytes), align: 0
  Segment part 18. ROOT       Intra module refs:   mcu_sleep
           ENTRY                   ADDRESS         REF BY
           =====                   =======         ======
           SLEEPCMD                000000BE 
    -------------------------------------------------------------------------
SFR_AN
  Relative segment, address: DATA 000000C0 - 000000C0 (0x1 bytes), align: 0
  Segment part 19. ROOT       Intra module refs:   TimerCompareInterrupt
           ENTRY                   ADDRESS         REF BY
           =====                   =======         ======
           _A_IRCON                000000C0 
           LOCAL                   ADDRESS         
           =====                   =======         
           IRCON                   000000C0 
    -------------------------------------------------------------------------
SFR_AN
  Relative segment, address: DATA 000000C1 - 000000C1 (0x1 bytes), align: 0
  Segment part 20. ROOT       Intra module refs:   putchar
           ENTRY                   ADDRESS         REF BY
           =====                   =======         ======
           U0DBUF                  000000C1 
    -------------------------------------------------------------------------
SFR_AN
  Relative segment, address: DATA 000000C2 - 000000C2 (0x1 bytes), align: 0
  Segment part 21. ROOT       Intra module refs:   uart_init
           ENTRY                   ADDRESS         REF BY
           =====                   =======         ======
           U0BAUD                  000000C2 
    -------------------------------------------------------------------------
SFR_AN
  Relative segment, address: DATA 000000C5 - 000000C5 (0x1 bytes), align: 0
  Segment part 22. ROOT       Intra module refs:   uart_init
           ENTRY                   ADDRESS         REF BY
           =====                   =======         ======
           U0GCR                   000000C5 
    -------------------------------------------------------------------------
SFR_AN
  Relative segment, address: DATA 000000C6 - 000000C6 (0x1 bytes), align: 0
  Segment part 23. ROOT       Intra module refs:   HW_Init
           ENTRY                   ADDRESS         REF BY
           =====                   =======         ======
           CLKCONCMD               000000C6 
    -------------------------------------------------------------------------
SFR_AN
  Relative segment, address: DATA 000000D2 - 000000D2 (0x1 bytes), align: 0
  Segment part 24. ROOT       Intra module refs:   HW_Init
           ENTRY                   ADDRESS         REF BY
           =====                   =======         ======
           DMA1CFGL                000000D2 
    -------------------------------------------------------------------------
SFR_AN
  Relative segment, address: DATA 000000D3 - 000000D3 (0x1 bytes), align: 0
  Segment part 25. ROOT       Intra module refs:   HW_Init
           ENTRY                   ADDRESS         REF BY
           =====                   =======         ======
           DMA1CFGH                000000D3 
    -------------------------------------------------------------------------
SFR_AN
  Relative segment, address: DATA 000000D4 - 000000D4 (0x1 bytes), align: 0
  Segment part 26. ROOT       Intra module refs:   HW_Init
           ENTRY                   ADDRESS         REF BY
           =====                   =======         ======
           DMA0CFGL                000000D4 
    -------------------------------------------------------------------------
SFR_AN
  Relative segment, address: DATA 000000D5 - 000000D5 (0x1 bytes), align: 0
  Segment part 27. ROOT       Intra module refs:   HW_Init
           ENTRY                   ADDRESS         REF BY
           =====                   =======         ======
           DMA0CFGH                000000D5 
    -------------------------------------------------------------------------
SFR_AN
  Relative segment, address: DATA 000000D6 - 000000D6 (0x1 bytes), align: 0
  Segment part 28. ROOT       Intra module refs:   AES_StreamCoder
                                                   uart_recv_cmd
           ENTRY                   ADDRESS         REF BY
           =====                   =======         ======
           DMAARM                  000000D6 
    -------------------------------------------------------------------------
SFR_AN
  Relative segment, address: DATA 000000D7 - 000000D7 (0x1 bytes), align: 0
  Segment part 29. ROOT       Intra module refs:   AES_StreamCoder
           ENTRY                   ADDRESS         REF BY
           =====                   =======         ======
           DMAREQ                  000000D7 
    -------------------------------------------------------------------------
SFR_AN
  Relative segment, address: DATA 000000D9 - 000000D9 (0x1 bytes), align: 0
  Segment part 30. ROOT       Intra module refs:   LoadTXData
                                                   UnLoadRXData
           ENTRY                   ADDRESS         REF BY
           =====                   =======         ======
           RFD                     000000D9 
    -------------------------------------------------------------------------
SFR_AN
  Relative segment, address: DATA 000000E1 - 000000E1 (0x1 bytes), align: 0
  Segment part 31. ROOT       Intra module refs:   LoadTXData
                                                   RI_Measure_POW
                                                   RecvData
                                                   SendData
                                                   random_core_init
           ENTRY                   ADDRESS         REF BY
           =====                   =======         ======
           RFST                    000000E1 
    -------------------------------------------------------------------------
SFR_AN
  Relative segment, address: DATA 000000E9 - 000000E9 (0x1 bytes), align: 0
  Segment part 32. ROOT       Intra module refs:   RecvData
                                                   SendData
           ENTRY                   ADDRESS         REF BY
           =====                   =======         ======
           RFIRQF0                 000000E9 
    -------------------------------------------------------------------------
SFR_AN
  Relative segment, address: DATA 000000F1 - 000000F1 (0x1 bytes), align: 0
  Segment part 33. ROOT       Intra module refs:   com_uart_init
                                                   uart_init
           ENTRY                   ADDRESS         REF BY
           =====                   =======         ======
           PERCFG                  000000F1 
    -------------------------------------------------------------------------
SFR_AN
  Relative segment, address: DATA 000000F3 - 000000F3 (0x1 bytes), align: 0
  Segment part 34. ROOT       Intra module refs:   uart_init
           ENTRY                   ADDRESS         REF BY
           =====                   =======         ======
           P0SEL                   000000F3 
    -------------------------------------------------------------------------
SFR_AN
  Relative segment, address: DATA 000000F4 - 000000F4 (0x1 bytes), align: 0
  Segment part 35. ROOT       Intra module refs:   com_uart_init
           ENTRY                   ADDRESS         REF BY
           =====                   =======         ======
           P1SEL                   000000F4 
    -------------------------------------------------------------------------
SFR_AN
  Relative segment, address: DATA 000000F8 - 000000F8 (0x1 bytes), align: 0
  Segment part 36. ROOT       Intra module refs:   com_uart_init
                                                   uart_putchar
           ENTRY                   ADDRESS         REF BY
           =====                   =======         ======
           _A_U1CSR                000000F8 
           LOCAL                   ADDRESS         
           =====                   =======         
           U1CSR                   000000F8 
    -------------------------------------------------------------------------
SFR_AN
  Relative segment, address: DATA 000000F9 - 000000F9 (0x1 bytes), align: 0
  Segment part 37. ROOT       Intra module refs:   uart_putchar
           ENTRY                   ADDRESS         REF BY
           =====                   =======         ======
           U1DBUF                  000000F9 
    -------------------------------------------------------------------------
SFR_AN
  Relative segment, address: DATA 000000FA - 000000FA (0x1 bytes), align: 0
  Segment part 38. ROOT       Intra module refs:   com_uart_init
           ENTRY                   ADDRESS         REF BY
           =====                   =======         ======
           U1BAUD                  000000FA 
    -------------------------------------------------------------------------
SFR_AN
  Relative segment, address: DATA 000000FC - 000000FC (0x1 bytes), align: 0
  Segment part 39. ROOT       Intra module refs:   com_uart_init
           ENTRY                   ADDRESS         REF BY
           =====                   =======         ======
           U1GCR                   000000FC 
    -------------------------------------------------------------------------
SFR_AN
  Relative segment, address: DATA 000000FE - 000000FE (0x1 bytes), align: 0
  Segment part 40. ROOT       Intra module refs:   HW_Init
           ENTRY                   ADDRESS         REF BY
           =====                   =======         ======
           P1DIR                   000000FE 
    -------------------------------------------------------------------------
XDATA_I
  Relative segment, address: XDATA 000012D6 - 000012DB (0x6 bytes), align: 0
  Segment part 255.           Intra module refs:   AM_Cold_start
           LOCAL                   ADDRESS         
           =====                   =======         
           COLD_MOD                000012D6 
    -------------------------------------------------------------------------
XDATA_I
  Relative segment, address: XDATA 000012DC - 000012E3 (0x8 bytes), align: 0
  Segment part 257.           Intra module refs:   AM_Hot_start
           LOCAL                   ADDRESS         
           =====                   =======         
           HOT_MOD                 000012DC 
    -------------------------------------------------------------------------
XDATA_I
  Relative segment, address: XDATA 000012E4 - 000012F3 (0x10 bytes), align: 0
  Segment part 259.           Intra module refs:   AM_HW_Init
           LOCAL                   ADDRESS         
           =====                   =======         
           HW_MOD                  000012E4 
    -------------------------------------------------------------------------
XDATA_I
  Relative segment, address: XDATA 000012F4 - 00001301 (0xe bytes), align: 0
  Segment part 261.           Intra module refs:   AM_SW_Init
           LOCAL                   ADDRESS         
           =====                   =======         
           SW_MOD                  000012F4 
    -------------------------------------------------------------------------
XDATA_I
  Relative segment, address: XDATA 00001302 - 00001305 (0x4 bytes), align: 0
  Segment part 263.           Intra module refs:   AM_IRQ_Init
           LOCAL                   ADDRESS         
           =====                   =======         
           IRQ_MOD                 00001302 
    -------------------------------------------------------------------------
XDATA_Z
  Relative segment, address: XDATA 00000301 - 00000302 (0x2 bytes), align: 0
  Segment part 265.           Intra module refs:   AM_Callback
           LOCAL                   ADDRESS         
           =====                   =======         
           CALLBACK                00000301 
    -------------------------------------------------------------------------
<BANKED_CODE> 1 (was BANKED_CODE)
  Relative segment, address: CODE 00001D98 - 00001DF1 (0x5a bytes), align: 0
  Segment part 341.           Intra module refs:   AM_Callback::?relay
           ENTRY                   ADDRESS         REF BY
           =====                   =======         ======
           AM_Callback             00001D98 
               calls direct
               XSTACK = 00000000 ( 0000000C )
    -------------------------------------------------------------------------
<BANKED_CODE> 1 (was BANKED_CODE)
  Relative segment, address: CODE 00001DF2 - 00001EB6 (0xc5 bytes), align: 0
  Segment part 343.           Intra module refs:   AM_Cold_start::?relay
           ENTRY                   ADDRESS         REF BY
           =====                   =======         ======
           AM_Cold_start           00001DF2 
               calls direct
               XSTACK = 00000009 ( 0000000C )
    -------------------------------------------------------------------------
<BANKED_CODE> 1 (was BANKED_CODE)
  Relative segment, address: CODE 00001EB7 - 00001F7B (0xc5 bytes), align: 0
  Segment part 345.           Intra module refs:   AM_Hot_start::?relay
           ENTRY                   ADDRESS         REF BY
           =====                   =======         ======
           AM_Hot_start            00001EB7 
               calls direct
               XSTACK = 00000009 ( 0000000C )
    -------------------------------------------------------------------------
<BANKED_CODE> 1 (was BANKED_CODE)
  Relative segment, address: CODE 00001F7C - 00002034 (0xb9 bytes), align: 0
  Segment part 347.           Intra module refs:   AM_HW_Init::?relay
           ENTRY                   ADDRESS         REF BY
           =====                   =======         ======
           AM_HW_Init              00001F7C 
               calls direct
               XSTACK = 0000000A ( 0000000C )
    -------------------------------------------------------------------------
<BANKED_CODE> 1 (was BANKED_CODE)
  Relative segment, address: CODE 00002035 - 000020F1 (0xbd bytes), align: 0
  Segment part 349.           Intra module refs:   AM_SW_Init::?relay
           ENTRY                   ADDRESS         REF BY
           =====                   =======         ======
           AM_SW_Init              00002035 
               calls direct
               XSTACK = 0000000A ( 0000000C )
    -------------------------------------------------------------------------
<BANKED_CODE> 1 (was BANKED_CODE)
  Relative segment, address: CODE 000020F2 - 000021B2 (0xc1 bytes), align: 0
  Segment part 351.           Intra module refs:   AM_IRQ_Init::?relay
           ENTRY                   ADDRESS         REF BY
           =====                   =======         ======
           AM_IRQ_Init             000020F2 
               calls direct
               XSTACK = 00000000 ( 0000000C )
    -------------------------------------------------------------------------
<BANKED_CODE> 1 (was BANKED_CODE)
  Relative segment, address: CODE 000021B3 - 000021B9 (0x7 bytes), align: 0
  Segment part 353.           Intra module refs:   __cli::?relay
           LOCAL                   ADDRESS         
           =====                   =======         
           __cli                   000021B3 
               XSTACK = 00000009 ( 00000000 )
    -------------------------------------------------------------------------
XDATA_I
  Relative segment, address: XDATA 00001306 - 0000130F (0xa bytes), align: 0
  Segment part 266.           Intra module refs:   Segment part 260
           ENTRY                   ADDRESS         REF BY
           =====                   =======         ======
           AT_MODULE               00001306 
    -------------------------------------------------------------------------
XDATA_Z
  Relative segment, address: XDATA 00000303 - 00000304 (0x2 bytes), align: 0
  Segment part 268.           Intra module refs:   AT_set_time
                                                   AT_time
                                                   AT_wait
                                                   HW_Init
                                                   calcCompareTime
           LOCAL                   ADDRESS         
           =====                   =======         
           TOFFSET                 00000303 
    -------------------------------------------------------------------------
XDATA_Z
  Relative segment, address: XDATA 00000305 - 00000308 (0x4 bytes), align: 0
  Segment part 269.           Intra module refs:   AT_set_alarm
                                                   AT_set_time
                                                   HW_Init
           LOCAL                   ADDRESS         
           =====                   =======         
           COMPARE_TIME            00000305 
    -------------------------------------------------------------------------
<BANKED_CODE> 1 (was BANKED_CODE)
  Relative segment, address: CODE 000021BA - 000021E5 (0x2c bytes), align: 0
  Segment part 355.           Intra module refs:   HW_Init::?relay
           LOCAL                   ADDRESS         
           =====                   =======         
           HW_Init                 000021BA 
               calls direct, is indirectly called
               ISTACK = 00000000 ( 00000002 )
    -------------------------------------------------------------------------
<BANKED_CODE> 1 (was BANKED_CODE)
  Relative segment, address: CODE 000021E6 - 00002210 (0x2b bytes), align: 0
  Segment part 357.           Intra module refs:   AT_enable::?relay
           ENTRY                   ADDRESS         REF BY
           =====                   =======         ======
           AT_enable               000021E6 
               calls direct
               XSTACK = 00000009 ( 00000009 )
    -------------------------------------------------------------------------
<BANKED_CODE> 1 (was BANKED_CODE)
  Relative segment, address: CODE 00002211 - 00002232 (0x22 bytes), align: 0
  Segment part 359.           Intra module refs:   AT_interval::?relay
           ENTRY                   ADDRESS         REF BY
           =====                   =======         ======
           AT_interval             00002211 
               XSTACK = 0000000E ( 00000000 )
    -------------------------------------------------------------------------
<BANKED_CODE> 1 (was BANKED_CODE)
  Relative segment, address: CODE 00002233 - 000022C1 (0x8f bytes), align: 0
  Segment part 361.           Intra module refs:   AT_set_time::?relay
           ENTRY                   ADDRESS         REF BY
           =====                   =======         ======
           AT_set_time             00002233 
               calls direct
               XSTACK = 0000000E ( 00000010 )
    -------------------------------------------------------------------------
<BANKED_CODE> 1 (was BANKED_CODE)
  Relative segment, address: CODE 000022C2 - 000022F8 (0x37 bytes), align: 0
  Segment part 363.           Intra module refs:   AT_time::?relay
           ENTRY                   ADDRESS         REF BY
           =====                   =======         ======
           AT_time                 000022C2 
               calls direct
               XSTACK = 00000043 ( 00000010 )
    -------------------------------------------------------------------------
<BANKED_CODE> 1 (was BANKED_CODE)
  Relative segment, address: CODE 000022F9 - 000023A9 (0xb1 bytes), align: 0
  Segment part 365.           Intra module refs:   AT_wait::?relay
           ENTRY                   ADDRESS         REF BY
           =====                   =======         ======
           AT_wait                 000022F9 
               calls direct
               XSTACK = 0000003F ( 0000000E )
    -------------------------------------------------------------------------
XDATA_Z
  Relative segment, address: XDATA 00000309 - 0000030C (0x4 bytes), align: 0
  Segment part 270.           Intra module refs:   AT_wait
           LOCAL                   ADDRESS         
           =====                   =======         
           AT_wait::val            00000309 
    -------------------------------------------------------------------------
<BANKED_CODE> 1 (was BANKED_CODE)
  Relative segment, address: CODE 000023AA - 000023BA (0x11 bytes), align: 0
  Segment part 367.           Intra module refs:   IRQEnable::?relay
           LOCAL                   ADDRESS         
           =====                   =======         
           IRQEnable               000023AA 
               XSTACK = 0000000F ( 00000000 )
    -------------------------------------------------------------------------
<BANKED_CODE> 1 (was BANKED_CODE)
  Relative segment, address: CODE 000023BB - 0000243B (0x81 bytes), align: 0
  Segment part 369.           Intra module refs:   AT_set_alarm::?relay
           ENTRY                   ADDRESS         REF BY
           =====                   =======         ======
           AT_set_alarm            000023BB 
               calls direct
               XSTACK = 0000000E ( 0000000E )
    -------------------------------------------------------------------------
<BANKED_CODE> 1 (was BANKED_CODE)
  Relative segment, address: CODE 0000243C - 000024F8 (0xbd bytes), align: 0
  Segment part 371.           Intra module refs:   calcCompareTime::?relay
           LOCAL                   ADDRESS         
           =====                   =======         
           calcCompareTime         0000243C 
               calls direct
               XSTACK = 0000000C ( 00000016 )
               ISTACK = 00000000 ( 00000002 )
    -------------------------------------------------------------------------
<BANKED_CODE> 1 (was BANKED_CODE)
  Relative segment, address: CODE 000024F9 - 00002533 (0x3b bytes), align: 0
  Segment part 373.           Intra module refs:   ReadTimer::?relay
           LOCAL                   ADDRESS         
           =====                   =======         
           ReadTimer               000024F9 
               XSTACK = 00000016 ( 00000000 )
               ISTACK = 00000000 ( 00000002 )
    -------------------------------------------------------------------------
XDATA_Z
  Relative segment, address: XDATA 0000030D - 00000310 (0x4 bytes), align: 0
  Segment part 271.           Intra module refs:   ReadTimer
           LOCAL                   ADDRESS         
           =====                   =======         
           ReadTimer::ret_val      0000030D 
    -------------------------------------------------------------------------
<BANKED_CODE> 1 (was BANKED_CODE)
  Relative segment, address: CODE 00002534 - 00002579 (0x46 bytes), align: 0
  Segment part 375.           Intra module refs:   loadTimerCompare::?relay
           LOCAL                   ADDRESS         
           =====                   =======         
           loadTimerCompare        00002534 
               XSTACK = 0000000C ( 00000010 )
    -------------------------------------------------------------------------
<BANKED_CODE> 1 (was BANKED_CODE)
  Relative segment, address: CODE 0000257A - 0000257E (0x5 bytes), align: 0
  Segment part 377.           Intra module refs:   isIRQEnable::?relay
           LOCAL                   ADDRESS         
           =====                   =======         
           isIRQEnable             0000257A 
               XSTACK = 0000000E ( 00000000 )
    -------------------------------------------------------------------------
NEAR_CODE
  Relative segment, address: CODE 00001D69 - 00001D8D (0x25 bytes), align: 0
  Segment part 711.           Intra module refs:   TimerCompareInterrupt::??INTVEC 43
           ENTRY                   ADDRESS         REF BY
           =====                   =======         ======
           TimerCompareInterrupt   00001D69 
               interrupt function
               calls direct
               XSTACK = 00000000 ( 0000000F )
    -------------------------------------------------------------------------
<BANKED_CODE> 1 (was BANKED_CODE)
  Relative segment, address: CODE 0000257F - 00002632 (0xb4 bytes), align: 0
  Segment part 379.           Intra module refs:   cmd_0x00::?relay
           ENTRY                   ADDRESS         REF BY
           =====                   =======         ======
           cmd_0x00                0000257F 
               calls direct, is indirectly called
               XSTACK = 00000000 ( 0000000F )
    -------------------------------------------------------------------------
<BANKED_CODE> 1 (was BANKED_CODE)
  Relative segment, address: CODE 00002633 - 000026B5 (0x83 bytes), align: 0
  Segment part 381.           Intra module refs:   cmd_0x01::?relay
           ENTRY                   ADDRESS         REF BY
           =====                   =======         ======
           cmd_0x01                00002633 
               calls direct, is indirectly called
               XSTACK = 00000000 ( 00000010 )
    -------------------------------------------------------------------------
<BANKED_CODE> 1 (was BANKED_CODE)
  Relative segment, address: CODE 000026B6 - 00002705 (0x50 bytes), align: 0
  Segment part 383.           Intra module refs:   cmd_0x02::?relay
           ENTRY                   ADDRESS         REF BY
           =====                   =======         ======
           cmd_0x02                000026B6 
               calls direct, is indirectly called
               XSTACK = 00000000 ( 0000000C )
    -------------------------------------------------------------------------
<BANKED_CODE> 1 (was BANKED_CODE)
  Relative segment, address: CODE 00002706 - 000027CE (0xc9 bytes), align: 0
  Segment part 385.           Intra module refs:   cmd_0x03::?relay
           ENTRY                   ADDRESS         REF BY
           =====                   =======         ======
           cmd_0x03                00002706 
               calls direct, is indirectly called
               XSTACK = 00000000 ( 00000010 )
    -------------------------------------------------------------------------
<BANKED_CODE> 1 (was BANKED_CODE)
  Relative segment, address: CODE 000027CF - 00002864 (0x96 bytes), align: 0
  Segment part 387.           Intra module refs:   cmd_0x04::?relay
           ENTRY                   ADDRESS         REF BY
           =====                   =======         ======
           cmd_0x04                000027CF 
               calls direct, is indirectly called
               XSTACK = 00000000 ( 00000010 )
    -------------------------------------------------------------------------
<BANKED_CODE> 1 (was BANKED_CODE)
  Relative segment, address: CODE 00002865 - 000028FA (0x96 bytes), align: 0
  Segment part 389.           Intra module refs:   cmd_0x05::?relay
           ENTRY                   ADDRESS         REF BY
           =====                   =======         ======
           cmd_0x05                00002865 
               calls direct, is indirectly called
               XSTACK = 00000000 ( 00000010 )
    -------------------------------------------------------------------------
<BANKED_CODE> 1 (was BANKED_CODE)
  Relative segment, address: CODE 000028FB - 00002960 (0x66 bytes), align: 0
  Segment part 391.           Intra module refs:   cmd_0x06::?relay
           ENTRY                   ADDRESS         REF BY
           =====                   =======         ======
           cmd_0x06                000028FB 
               calls direct, is indirectly called
               XSTACK = 00000000 ( 0000000E )
    -------------------------------------------------------------------------
<BANKED_CODE> 1 (was BANKED_CODE)
  Relative segment, address: CODE 00002961 - 000029EA (0x8a bytes), align: 0
  Segment part 393.           Intra module refs:   cmd_0x07::?relay
           ENTRY                   ADDRESS         REF BY
           =====                   =======         ======
           cmd_0x07                00002961 
               calls direct, is indirectly called
               XSTACK = 00000000 ( 00000010 )
    -------------------------------------------------------------------------
<BANKED_CODE> 1 (was BANKED_CODE)
  Relative segment, address: CODE 000029EB - 00002A6D (0x83 bytes), align: 0
  Segment part 395.           Intra module refs:   cmd_0x08::?relay
           ENTRY                   ADDRESS         REF BY
           =====                   =======         ======
           cmd_0x08                000029EB 
               calls direct, is indirectly called
               XSTACK = 00000000 ( 00000010 )
    -------------------------------------------------------------------------
<BANKED_CODE> 1 (was BANKED_CODE)
  Relative segment, address: CODE 00002A6E - 00002AC2 (0x55 bytes), align: 0
  Segment part 397.           Intra module refs:   cmd_0x09::?relay
           ENTRY                   ADDRESS         REF BY
           =====                   =======         ======
           cmd_0x09                00002A6E 
               calls direct, is indirectly called
               XSTACK = 00000000 ( 0000000A )
               ISTACK = 00000000 ( 00000001 )
    -------------------------------------------------------------------------
<BANKED_CODE> 1 (was BANKED_CODE)
  Relative segment, address: CODE 00002AC3 - 00002B17 (0x55 bytes), align: 0
  Segment part 399.           Intra module refs:   cmd_0x0A::?relay
           ENTRY                   ADDRESS         REF BY
           =====                   =======         ======
           cmd_0x0A                00002AC3 
               calls direct, is indirectly called
               XSTACK = 00000000 ( 0000000A )
               ISTACK = 00000000 ( 00000001 )
    -------------------------------------------------------------------------
<BANKED_CODE> 1 (was BANKED_CODE)
  Relative segment, address: CODE 00002B18 - 00002D08 (0x1f1 bytes), align: 0
  Segment part 401.           Intra module refs:   cmd_0x0B::?relay
           ENTRY                   ADDRESS         REF BY
           =====                   =======         ======
           cmd_0x0B                00002B18 
               calls direct, is indirectly called
               XSTACK = 00000000 ( 0000001B )
               ISTACK = 00000000 ( 00000002 )
    -------------------------------------------------------------------------
CODE_C
  Relative segment, address: CODE 00001445 - 00001449 (0x5 bytes), align: 0
  Segment part 272.           Intra module refs:   cmd_0x0B
    -------------------------------------------------------------------------
XDATA_Z
  Relative segment, address: XDATA 00000311 - 000003A5 (0x95 bytes), align: 0
  Segment part 273.           Intra module refs:   upload_frame
           LOCAL                   ADDRESS         
           =====                   =======         
           upload                  00000311 
    -------------------------------------------------------------------------
<BANKED_CODE> 1 (was BANKED_CODE)
  Relative segment, address: CODE 00002D09 - 00002DA2 (0x9a bytes), align: 0
  Segment part 403.           Intra module refs:   cmd_0x0C::?relay
           ENTRY                   ADDRESS         REF BY
           =====                   =======         ======
           cmd_0x0C                00002D09 
               calls direct, is indirectly called
               XSTACK = 00000000 ( 00000010 )
    -------------------------------------------------------------------------
<BANKED_CODE> 1 (was BANKED_CODE)
  Relative segment, address: CODE 00002DA3 - 00002DF3 (0x51 bytes), align: 0
  Segment part 405.           Intra module refs:   upload_frame::?relay
           LOCAL                   ADDRESS         
           =====                   =======         
           upload_frame            00002DA3 
               calls direct
               XSTACK = 0000000E ( 00000009 )
    -------------------------------------------------------------------------
<BANKED_CODE> 1 (was BANKED_CODE)
  Relative segment, address: CODE 00002DF4 - 00002E25 (0x32 bytes), align: 0
  Segment part 407.           Intra module refs:   mem_move::?relay
           LOCAL                   ADDRESS         
           =====                   =======         
           mem_move                00002DF4 
               XSTACK = 00000009 ( 00000009 )
               ISTACK = 00000000 ( 00000001 )
    -------------------------------------------------------------------------
<BANKED_CODE> 1 (was BANKED_CODE)
  Relative segment, address: CODE 00002E26 - 00002EE0 (0xbb bytes), align: 0
  Segment part 409.           Intra module refs:   cmd_0x0D::?relay
           ENTRY                   ADDRESS         REF BY
           =====                   =======         ======
           cmd_0x0D                00002E26 
               calls direct, is indirectly called
               XSTACK = 00000000 ( 00000011 )
    -------------------------------------------------------------------------
<BANKED_CODE> 1 (was BANKED_CODE)
  Relative segment, address: CODE 00002EE1 - 00002F63 (0x83 bytes), align: 0
  Segment part 411.           Intra module refs:   cmd_0x0E::?relay
           ENTRY                   ADDRESS         REF BY
           =====                   =======         ======
           cmd_0x0E                00002EE1 
               calls direct, is indirectly called
               XSTACK = 00000000 ( 00000010 )
    -------------------------------------------------------------------------
<BANKED_CODE> 1 (was BANKED_CODE)
  Relative segment, address: CODE 00002F64 - 00002FE6 (0x83 bytes), align: 0
  Segment part 413.           Intra module refs:   cmd_0x0F::?relay
           ENTRY                   ADDRESS         REF BY
           =====                   =======         ======
           cmd_0x0F                00002F64 
               calls direct, is indirectly called
               XSTACK = 00000000 ( 00000010 )
    -------------------------------------------------------------------------
<BANKED_CODE> 1 (was BANKED_CODE)
  Relative segment, address: CODE 00002FE7 - 00003069 (0x83 bytes), align: 0
  Segment part 415.           Intra module refs:   cmd_0x10::?relay
           ENTRY                   ADDRESS         REF BY
           =====                   =======         ======
           cmd_0x10                00002FE7 
               calls direct, is indirectly called
               XSTACK = 00000000 ( 00000010 )
    -------------------------------------------------------------------------
<BANKED_CODE> 1 (was BANKED_CODE)
  Relative segment, address: CODE 0000306A - 00003100 (0x97 bytes), align: 0
  Segment part 417.           Intra module refs:   cmd_0x11::?relay
           ENTRY                   ADDRESS         REF BY
           =====                   =======         ======
           cmd_0x11                0000306A 
               calls direct, is indirectly called
               XSTACK = 00000000 ( 0000000E )
    -------------------------------------------------------------------------
XDATA_I
  Relative segment, address: XDATA 00001310 - 00001333 (0x24 bytes), align: 0
  Segment part 274.           Intra module refs:   parse_uart_stream
           LOCAL                   ADDRESS         
           =====                   =======         
           CMD_LIST                00001310 
    -------------------------------------------------------------------------
<BANKED_CODE> 1 (was BANKED_CODE)
  Relative segment, address: CODE 00003101 - 00003194 (0x94 bytes), align: 0
  Segment part 419.           Intra module refs:   parse_uart_stream::?relay
           ENTRY                   ADDRESS         REF BY
           =====                   =======         ======
           parse_uart_stream       00003101 
               calls direct
               XSTACK = 00000000 ( 0000000D )
    -------------------------------------------------------------------------
<BANKED_CODE> 1 (was BANKED_CODE)
  Relative segment, address: CODE 00003195 - 000031FC (0x68 bytes), align: 0
  Segment part 421.           Intra module refs:   cmd_answer::?relay
           ENTRY                   ADDRESS         REF BY
           =====                   =======         ======
           cmd_answer              00003195 
               calls direct
               XSTACK = 00000019 ( 00000012 )
               ISTACK = 00000000 ( 00000001 )
    -------------------------------------------------------------------------
<BANKED_CODE> 1 (was BANKED_CODE)
  Relative segment, address: CODE 000031FD - 00003234 (0x38 bytes), align: 0
  Segment part 423.           Intra module refs:   cmd_answer_err::?relay
           ENTRY                   ADDRESS         REF BY
           =====                   =======         ======
           cmd_answer_err          000031FD 
               calls direct
               XSTACK = 00000019 ( 0000000B )
               ISTACK = 00000000 ( 00000001 )
    -------------------------------------------------------------------------
<BANKED_CODE> 1 (was BANKED_CODE)
  Relative segment, address: CODE 00003235 - 000032D0 (0x9c bytes), align: 0
  Segment part 425.           Intra module refs:   stream_write::?relay
           ENTRY                   ADDRESS         REF BY
           =====                   =======         ======
           stream_write            00003235 
               calls direct
               XSTACK = 0000000B ( 00000011 )
               ISTACK = 00000000 ( 00000001 )
    -------------------------------------------------------------------------
<BANKED_CODE> 1 (was BANKED_CODE)
  Relative segment, address: CODE 000032D1 - 000032DD (0xd bytes), align: 0
  Segment part 427.           Intra module refs:   check_cmd_frame::?relay
           LOCAL                   ADDRESS         
           =====                   =======         
           check_cmd_frame         000032D1 
               XSTACK = 0000000D ( 00000000 )
    -------------------------------------------------------------------------
<BANKED_CODE> 1 (was BANKED_CODE)
  Relative segment, address: CODE 000032DE - 0000333A (0x5d bytes), align: 0
  Segment part 429.           Intra module refs:   crc16::?relay
           LOCAL                   ADDRESS         
           =====                   =======         
           crc16                   000032DE 
               XSTACK = 00000012 ( 00000009 )
    -------------------------------------------------------------------------
XDATA_I
  Relative segment, address: XDATA 00001334 - 0000133D (0xa bytes), align: 0
  Segment part 276.           Intra module refs:   Segment part 260
           ENTRY                   ADDRESS         REF BY
           =====                   =======         ======
           CODER_MODULE            00001334 
    -------------------------------------------------------------------------
<BANKED_CODE> 1 (was BANKED_CODE)
  Relative segment, address: CODE 0000333B - 000034D3 (0x199 bytes), align: 0
  Segment part 431.           Intra module refs:   HW_Init::?relay
           LOCAL                   ADDRESS         
           =====                   =======         
           HW_Init                 0000333B 
               calls direct, is indirectly called
               XSTACK = 00000000 ( 00000054 )
               ISTACK = 00000000 ( 00000002 )
    -------------------------------------------------------------------------
CODE_C
  Relative segment, address: CODE 0000144A - 0000144E (0x5 bytes), align: 0
  Segment part 279.           Intra module refs:   HW_Init
    -------------------------------------------------------------------------
CODE_C
  Relative segment, address: CODE 0000144F - 00001453 (0x5 bytes), align: 0
  Segment part 280.           Intra module refs:   HW_Init
    -------------------------------------------------------------------------
CODE_C
  Relative segment, address: CODE 00001454 - 00001458 (0x5 bytes), align: 0
  Segment part 281.           Intra module refs:   HW_Init
    -------------------------------------------------------------------------
CODE_C
  Relative segment, address: CODE 00001459 - 0000145D (0x5 bytes), align: 0
  Segment part 282.           Intra module refs:   HW_Init
    -------------------------------------------------------------------------
<BANKED_CODE> 1 (was BANKED_CODE)
  Relative segment, address: CODE 000034D4 - 0000374B (0x278 bytes), align: 0
  Segment part 433.           Intra module refs:   AES_StreamCoder::?relay
           ENTRY                   ADDRESS         REF BY
           =====                   =======         ======
           AES_StreamCoder         000034D4 
               calls direct
               XSTACK = 0000003F ( 0000002B )
    -------------------------------------------------------------------------
XDATA_I
  Relative segment, address: XDATA 0000133E - 00001347 (0xa bytes), align: 0
  Segment part 283.           Intra module refs:   Segment part 260
           ENTRY                   ADDRESS         REF BY
           =====                   =======         ======
           CPU_MODULE              0000133E 
    -------------------------------------------------------------------------
<BANKED_CODE> 1 (was BANKED_CODE)
  Relative segment, address: CODE 0000374C - 00003762 (0x17 bytes), align: 0
  Segment part 445.           Intra module refs:   HW_Init::?relay
           LOCAL                   ADDRESS         
           =====                   =======         
           HW_Init                 0000374C 
               is indirectly called
    -------------------------------------------------------------------------
XDATA_I
  Relative segment, address: XDATA 00001348 - 00001351 (0xa bytes), align: 0
  Segment part 285.           Intra module refs:   Segment part 260
           ENTRY                   ADDRESS         REF BY
           =====                   =======         ======
           DBG_MODULE              00001348 
    -------------------------------------------------------------------------
<BANKED_CODE> 1 (was BANKED_CODE)
  Relative segment, address: CODE 00003763 - 00003775 (0x13 bytes), align: 0
  Segment part 447.           Intra module refs:   HW_Init::?relay
           LOCAL                   ADDRESS         
           =====                   =======         
           HW_Init                 00003763 
               calls direct, is indirectly called
               ISTACK = 00000000 ( 00000002 )
    -------------------------------------------------------------------------
<BANKED_CODE> 1 (was BANKED_CODE)
  Relative segment, address: CODE 00003776 - 00003777 (0x2 bytes), align: 0
  Segment part 449.           Intra module refs:   DBG_CORE_HALT::?relay
           ENTRY                   ADDRESS         REF BY
           =====                   =======         ======
           DBG_CORE_HALT           00003776 
               XSTACK = 0000003F ( 00000000 )
    -------------------------------------------------------------------------
<BANKED_CODE> 1 (was BANKED_CODE)
  Relative segment, address: CODE 00003778 - 0000378E (0x17 bytes), align: 0
  Segment part 453.           Intra module refs:   uart_init::?relay
           LOCAL                   ADDRESS         
           =====                   =======         
           uart_init               00003778 
    -------------------------------------------------------------------------
NEAR_CODE
  Relative segment, address: CODE 00001D8E - 00001D97 (0xa bytes), align: 0
  Segment part 712.
           ENTRY                   ADDRESS         REF BY
           =====                   =======         ======
           putchar                 00001D8E        put_one_char (?printf_p)
    -------------------------------------------------------------------------
XDATA_I
  Relative segment, address: XDATA 00001352 - 0000135B (0xa bytes), align: 0
  Segment part 287.           Intra module refs:   Segment part 260
           ENTRY                   ADDRESS         REF BY
           =====                   =======         ======
           DMA_MODULE              00001352 
    -------------------------------------------------------------------------
XDATA_Z
  Relative segment, address: XDATA 000003A6 - 000003CD (0x28 bytes), align: 0
  Segment part 289.           Intra module refs:   AES_StreamCoder
                                                   HW_Init
                                                   uart_dma_init
           ENTRY                   ADDRESS         REF BY
           =====                   =======         ======
           DMA_CH                  000003A6 
    -------------------------------------------------------------------------
<BANKED_CODE> 1 (was BANKED_CODE)
  Relative segment, address: CODE 0000378F - 000037B3 (0x25 bytes), align: 0
  Segment part 455.           Intra module refs:   HW_Init::?relay
           LOCAL                   ADDRESS         
           =====                   =======         
           HW_Init                 0000378F 
               is indirectly called
    -------------------------------------------------------------------------
XDATA_I
  Relative segment, address: XDATA 0000135C - 00001365 (0xa bytes), align: 0
  Segment part 290.           Intra module refs:   Segment part 262
           ENTRY                   ADDRESS         REF BY
           =====                   =======         ======
           FR_MODULE               0000135C 
    -------------------------------------------------------------------------
<BANKED_CODE> 1 (was BANKED_CODE)
  Relative segment, address: CODE 000037B4 - 000037B6 (0x3 bytes), align: 0
  Segment part 457.           Intra module refs:   SW_Init::?relay
           LOCAL                   ADDRESS         
           =====                   =======         
           SW_Init                 000037B4 
               is indirectly called
    -------------------------------------------------------------------------
<BANKED_CODE> 1 (was BANKED_CODE)
  Relative segment, address: CODE 000037B7 - 000037C4 (0xe bytes), align: 0
  Segment part 459.           Intra module refs:   FR_restart::?relay
           ENTRY                   ADDRESS         REF BY
           =====                   =======         ======
           FR_restart              000037B7 
               calls direct
               XSTACK = 0000000A ( 00000000 )
               ISTACK = 00000000 ( 00000002 )
    -------------------------------------------------------------------------
<BANKED_CODE> 1 (was BANKED_CODE)
  Relative segment, address: CODE 000037C5 - 000037D2 (0xe bytes), align: 0
  Segment part 461.           Intra module refs:   FR_create::?relay
           ENTRY                   ADDRESS         REF BY
           =====                   =======         ======
           FR_create               000037C5 
               calls direct
               XSTACK = 00000024 ( 00000000 )
               ISTACK = 00000000 ( 00000002 )
    -------------------------------------------------------------------------
<BANKED_CODE> 1 (was BANKED_CODE)
  Relative segment, address: CODE 000037D3 - 000037E7 (0x15 bytes), align: 0
  Segment part 463.           Intra module refs:   FR_delete::?relay
           ENTRY                   ADDRESS         REF BY
           =====                   =======         ======
           FR_delete               000037D3 
               calls direct
               XSTACK = 00000049 ( 00000009 )
    -------------------------------------------------------------------------
<BANKED_CODE> 1 (was BANKED_CODE)
  Relative segment, address: CODE 000037E8 - 0000382F (0x48 bytes), align: 0
  Segment part 465.           Intra module refs:   mem_move::?relay
           LOCAL                   ADDRESS         
           =====                   =======         
           mem_move                000037E8 
               XSTACK = 00000013 ( 00000009 )
               ISTACK = 00000000 ( 00000001 )
    -------------------------------------------------------------------------
<BANKED_CODE> 1 (was BANKED_CODE)
  Relative segment, address: CODE 00003830 - 000038E4 (0xb5 bytes), align: 0
  Segment part 467.           Intra module refs:   FR_add_header::?relay
           ENTRY                   ADDRESS         REF BY
           =====                   =======         ======
           FR_add_header           00003830 
               calls direct
               XSTACK = 00000024 ( 00000013 )
               ISTACK = 00000000 ( 00000001 )
    -------------------------------------------------------------------------
<BANKED_CODE> 1 (was BANKED_CODE)
  Relative segment, address: CODE 000038E5 - 000038F9 (0x15 bytes), align: 0
  Segment part 471.           Intra module refs:   FR_set_rx::?relay
           ENTRY                   ADDRESS         REF BY
           =====                   =======         ======
           FR_set_rx               000038E5 
               calls direct
               XSTACK = 0000000C ( 00000009 )
    -------------------------------------------------------------------------
<BANKED_CODE> 1 (was BANKED_CODE)
  Relative segment, address: CODE 000038FA - 0000390E (0x15 bytes), align: 0
  Segment part 473.           Intra module refs:   FR_set_tx::?relay
           ENTRY                   ADDRESS         REF BY
           =====                   =======         ======
           FR_set_tx               000038FA 
               calls direct
               XSTACK = 0000000A ( 00000009 )
    -------------------------------------------------------------------------
<BANKED_CODE> 1 (was BANKED_CODE)
  Relative segment, address: CODE 0000390F - 0000391C (0xe bytes), align: 0
  Segment part 479.           Intra module refs:   FR_rx_frames::?relay
           ENTRY                   ADDRESS         REF BY
           =====                   =======         ======
           FR_rx_frames            0000390F 
               calls direct
               XSTACK = 0000000A ( 00000000 )
               ISTACK = 00000000 ( 00000002 )
    -------------------------------------------------------------------------
<BANKED_CODE> 1 (was BANKED_CODE)
  Relative segment, address: CODE 0000391D - 0000392A (0xe bytes), align: 0
  Segment part 481.           Intra module refs:   FR_tx_frames::?relay
           ENTRY                   ADDRESS         REF BY
           =====                   =======         ======
           FR_tx_frames            0000391D 
               calls direct
               XSTACK = 0000000A ( 00000000 )
               ISTACK = 00000000 ( 00000002 )
    -------------------------------------------------------------------------
<BANKED_CODE> 1 (was BANKED_CODE)
  Relative segment, address: CODE 0000392B - 0000393F (0x15 bytes), align: 0
  Segment part 485.           Intra module refs:   FR_find_tx::?relay
           ENTRY                   ADDRESS         REF BY
           =====                   =======         ======
           FR_find_tx              0000392B 
               calls direct
               XSTACK = 0000000A ( 00000009 )
    -------------------------------------------------------------------------
<BANKED_CODE> 1 (was BANKED_CODE)
  Relative segment, address: CODE 00003940 - 00003954 (0x15 bytes), align: 0
  Segment part 487.           Intra module refs:   FR_find_rx::?relay
           ENTRY                   ADDRESS         REF BY
           =====                   =======         ======
           FR_find_rx              00003940 
               calls direct
               XSTACK = 0000000E ( 00000009 )
    -------------------------------------------------------------------------
XDATA_I
  Relative segment, address: XDATA 00001366 - 0000136F (0xa bytes), align: 0
  Segment part 293.           Intra module refs:   Segment part 256
                                                   Segment part 258
                                                   Segment part 260
           ENTRY                   ADDRESS         REF BY
           =====                   =======         ======
           LED_MODULE              00001366 
    -------------------------------------------------------------------------
<BANKED_CODE> 1 (was BANKED_CODE)
  Relative segment, address: CODE 00003955 - 00003957 (0x3 bytes), align: 0
  Segment part 491.           Intra module refs:   HW_Init::?relay
           LOCAL                   ADDRESS         
           =====                   =======         
           HW_Init                 00003955 
               is indirectly called
    -------------------------------------------------------------------------
<BANKED_CODE> 1 (was BANKED_CODE)
  Relative segment, address: CODE 00003958 - 0000395A (0x3 bytes), align: 0
  Segment part 493.           Intra module refs:   SW_Init::?relay
           LOCAL                   ADDRESS         
           =====                   =======         
           SW_Init                 00003958 
               is indirectly called
    -------------------------------------------------------------------------
<BANKED_CODE> 1 (was BANKED_CODE)
  Relative segment, address: CODE 0000395B - 0000395D (0x3 bytes), align: 0
  Segment part 495.           Intra module refs:   Cold_Start::?relay
           LOCAL                   ADDRESS         
           =====                   =======         
           Cold_Start              0000395B 
               is indirectly called
    -------------------------------------------------------------------------
<BANKED_CODE> 1 (was BANKED_CODE)
  Relative segment, address: CODE 0000395E - 00003960 (0x3 bytes), align: 0
  Segment part 497.           Intra module refs:   Hot_Start::?relay
           LOCAL                   ADDRESS         
           =====                   =======         
           Hot_Start               0000395E 
               is indirectly called
    -------------------------------------------------------------------------
XDATA_I
  Relative segment, address: XDATA 00001370 - 00001379 (0xa bytes), align: 0
  Segment part 295.           Intra module refs:   Segment part 256
                                                   Segment part 258
                                                   Segment part 262
                                                   Segment part 264
           ENTRY                   ADDRESS         REF BY
           =====                   =======         ======
           LLC_MODULE              00001370 
    -------------------------------------------------------------------------
XDATA_Z
  Relative segment, address: XDATA 000003CE - 00000463 (0x96 bytes), align: 0
  Segment part 297.           Intra module refs:   IRQ_Init
                                                   LLC_close_slot
                                                   LLC_open_slot
                                                   SW_Init
                                                   receive
                                                   scheduler_rx
                                                   scheduler_tx
                                                   transmite
           LOCAL                   ADDRESS         
           =====                   =======         
           ACTIONSLOTS             000003CE 
    -------------------------------------------------------------------------
<BANKED_CODE> 1 (was BANKED_CODE)
  Relative segment, address: CODE 00003961 - 00003994 (0x34 bytes), align: 0
  Segment part 499.           Intra module refs:   IRQ_Init::?relay
           LOCAL                   ADDRESS         
           =====                   =======         
           IRQ_Init                00003961 
               is indirectly called
               ISTACK = 00000000 ( 00000002 )
    -------------------------------------------------------------------------
<BANKED_CODE> 1 (was BANKED_CODE)
  Relative segment, address: CODE 00003995 - 000039C8 (0x34 bytes), align: 0
  Segment part 501.           Intra module refs:   SW_Init::?relay
           LOCAL                   ADDRESS         
           =====                   =======         
           SW_Init                 00003995 
               is indirectly called
               ISTACK = 00000000 ( 00000002 )
    -------------------------------------------------------------------------
<BANKED_CODE> 1 (was BANKED_CODE)
  Relative segment, address: CODE 000039C9 - 000039D6 (0xe bytes), align: 0
  Segment part 503.           Intra module refs:   LLC_restart::?relay
           ENTRY                   ADDRESS         REF BY
           =====                   =======         ======
           LLC_restart             000039C9 
               calls direct
               XSTACK = 0000000A ( 00000000 )
               ISTACK = 00000000 ( 00000002 )
    -------------------------------------------------------------------------
<BANKED_CODE> 1 (was BANKED_CODE)
  Relative segment, address: CODE 000039D7 - 00003A8E (0xb8 bytes), align: 0
  Segment part 505.           Intra module refs:   LLC_open_slot::?relay
           ENTRY                   ADDRESS         REF BY
           =====                   =======         ======
           LLC_open_slot           000039D7 
               calls direct
               XSTACK = 0000000E ( 0000000C )
               ISTACK = 00000000 ( 00000001 )
    -------------------------------------------------------------------------
<BANKED_CODE> 1 (was BANKED_CODE)
  Relative segment, address: CODE 00003A8F - 00003AFF (0x71 bytes), align: 0
  Segment part 507.           Intra module refs:   LLC_close_slot::?relay
           ENTRY                   ADDRESS         REF BY
           =====                   =======         ======
           LLC_close_slot          00003A8F 
               calls direct
               XSTACK = 0000000E ( 0000000C )
    -------------------------------------------------------------------------
<BANKED_CODE> 1 (was BANKED_CODE)
  Relative segment, address: CODE 00003B00 - 00003B68 (0x69 bytes), align: 0
  Segment part 509.           Intra module refs:   LLC_add_tx_frame::?relay
           ENTRY                   ADDRESS         REF BY
           =====                   =======         ======
           LLC_add_tx_frame        00003B00 
               calls direct
               XSTACK = 00000019 ( 0000000C )
    -------------------------------------------------------------------------
<BANKED_CODE> 1 (was BANKED_CODE)
  Relative segment, address: CODE 00003B69 - 00003C6F (0x107 bytes), align: 0
  Segment part 511.           Intra module refs:   scheduler_tx::?relay
           LOCAL                   ADDRESS         
           =====                   =======         
           scheduler_tx            00003B69 
               calls direct
               XSTACK = 00000000 ( 0000000C )
    -------------------------------------------------------------------------
<BANKED_CODE> 1 (was BANKED_CODE)
  Relative segment, address: CODE 00003C70 - 00003CF6 (0x87 bytes), align: 0
  Segment part 513.           Intra module refs:   scheduler_rx::?relay
           LOCAL                   ADDRESS         
           =====                   =======         
           scheduler_rx            00003C70 
               calls direct
               XSTACK = 00000000 ( 0000000C )
    -------------------------------------------------------------------------
<BANKED_CODE> 1 (was BANKED_CODE)
  Relative segment, address: CODE 00003CF7 - 00003D0D (0x17 bytes), align: 0
  Segment part 515.           Intra module refs:   Cold_Start::?relay
           LOCAL                   ADDRESS         
           =====                   =======         
           Cold_Start              00003CF7 
               calls direct, is indirectly called
               ISTACK = 00000000 ( 00000002 )
    -------------------------------------------------------------------------
<BANKED_CODE> 1 (was BANKED_CODE)
  Relative segment, address: CODE 00003D0E - 00003D44 (0x37 bytes), align: 0
  Segment part 517.           Intra module refs:   receive::?relay
           LOCAL                   ADDRESS         
           =====                   =======         
           receive                 00003D0E 
               calls direct
               XSTACK = 00000009 ( 00000009 )
    -------------------------------------------------------------------------
<BANKED_CODE> 1 (was BANKED_CODE)
  Relative segment, address: CODE 00003D45 - 00003F20 (0x1dc bytes), align: 0
  Segment part 519.           Intra module refs:   transmite::?relay
           LOCAL                   ADDRESS         
           =====                   =======         
           transmite               00003D45 
               calls direct
               XSTACK = 00000009 ( 00000010 )
    -------------------------------------------------------------------------
<BANKED_CODE> 1 (was BANKED_CODE)
  Relative segment, address: CODE 00003F21 - 00003F49 (0x29 bytes), align: 0
  Segment part 521.           Intra module refs:   Hot_Start::?relay
           LOCAL                   ADDRESS         
           =====                   =======         
           Hot_Start               00003F21 
               calls direct, is indirectly called
               XSTACK = 00000000 ( 00000009 )
    -------------------------------------------------------------------------
XDATA_I
  Relative segment, address: XDATA 0000137A - 00001383 (0xa bytes), align: 0
  Segment part 298.           Intra module refs:   Segment part 262
                                                   Segment part 264
           ENTRY                   ADDRESS         REF BY
           =====                   =======         ======
           MAC_MODULE              0000137A 
    -------------------------------------------------------------------------
<BANKED_CODE> 1 (was BANKED_CODE)
  Relative segment, address: CODE 00003F4A - 00003F4C (0x3 bytes), align: 0
  Segment part 523.           Intra module refs:   SW_Init::?relay
           LOCAL                   ADDRESS         
           =====                   =======         
           SW_Init                 00003F4A 
               is indirectly called
    -------------------------------------------------------------------------
<BANKED_CODE> 1 (was BANKED_CODE)
  Relative segment, address: CODE 00003F4D - 00003F4F (0x3 bytes), align: 0
  Segment part 525.           Intra module refs:   IRQ_Init::?relay
           LOCAL                   ADDRESS         
           =====                   =======         
           IRQ_Init                00003F4D 
               is indirectly called
    -------------------------------------------------------------------------
<BANKED_CODE> 1 (was BANKED_CODE)
  Relative segment, address: CODE 00003F50 - 00003FC8 (0x79 bytes), align: 0
  Segment part 527.           Intra module refs:   _recv_frame::?relay
           LOCAL                   ADDRESS         
           =====                   =======         
           _recv_frame             00003F50 
               calls direct
               XSTACK = 0000000C ( 00000012 )
    -------------------------------------------------------------------------
<BANKED_CODE> 1 (was BANKED_CODE)
  Relative segment, address: CODE 00003FC9 - 00003FFB (0x33 bytes), align: 0
  Segment part 529.           Intra module refs:   xor_calc::?relay
           LOCAL                   ADDRESS         
           =====                   =======         
           xor_calc                00003FC9 
               XSTACK = 0000000D ( 00000009 )
    -------------------------------------------------------------------------
<BANKED_CODE> 1 (was BANKED_CODE)
  Relative segment, address: CODE 00003FFC - 0000404C (0x51 bytes), align: 0
  Segment part 531.           Intra module refs:   _send_ack::?relay
           LOCAL                   ADDRESS         
           =====                   =======         
           _send_ack               00003FFC 
               calls direct
               XSTACK = 0000000C ( 0000000D )
               ISTACK = 00000000 ( 00000001 )
    -------------------------------------------------------------------------
<BANKED_CODE> 1 (was BANKED_CODE)
  Relative segment, address: CODE 0000404D - 000040E5 (0x99 bytes), align: 0
  Segment part 533.           Intra module refs:   MAC_Receive::?relay
           ENTRY                   ADDRESS         REF BY
           =====                   =======         ======
           MAC_Receive             0000404D 
               calls direct
               XSTACK = 00000009 ( 0000000E )
               ISTACK = 00000000 ( 00000001 )
    -------------------------------------------------------------------------
<BANKED_CODE> 1 (was BANKED_CODE)
  Relative segment, address: CODE 000040E6 - 00004151 (0x6c bytes), align: 0
  Segment part 535.           Intra module refs:   _send_frame::?relay
           LOCAL                   ADDRESS         
           =====                   =======         
           _send_frame             000040E6 
               calls direct
               XSTACK = 00000009 ( 0000000E )
    -------------------------------------------------------------------------
<BANKED_CODE> 1 (was BANKED_CODE)
  Relative segment, address: CODE 00004152 - 00004155 (0x4 bytes), align: 0
  Segment part 537.           Intra module refs:   _recv_ack::?relay
           LOCAL                   ADDRESS         
           =====                   =======         
           _recv_ack               00004152 
               XSTACK = 00000009 ( 00000000 )
    -------------------------------------------------------------------------
<BANKED_CODE> 1 (was BANKED_CODE)
  Relative segment, address: CODE 00004156 - 000041CD (0x78 bytes), align: 0
  Segment part 539.           Intra module refs:   MAC_Send::?relay
           ENTRY                   ADDRESS         REF BY
           =====                   =======         ======
           MAC_Send                00004156 
               calls direct
               XSTACK = 0000000E ( 00000009 )
    -------------------------------------------------------------------------
<BANKED_CODE> 1 (was BANKED_CODE)
  Relative segment, address: CODE 000041CE - 00004217 (0x4a bytes), align: 0
  Segment part 541.           Intra module refs:   pre_init::?relay
           LOCAL                   ADDRESS         
           =====                   =======         
           pre_init                000041CE 
               calls direct
               XSTACK = 00000000 ( 0000000C )
    -------------------------------------------------------------------------
<BANKED_CODE> 1 (was BANKED_CODE)
  Relative segment, address: CODE 00004218 - 0000428D (0x76 bytes), align: 0
  Segment part 543.
           ENTRY                   ADDRESS         REF BY
           =====                   =======         ======
           main                    00004218        ?call_main (?cmain)
               calls direct
               XSTACK = 00000000 ( 00000004 )
    -------------------------------------------------------------------------
<BANKED_CODE> 1 (was BANKED_CODE)
  Relative segment, address: CODE 0000428E - 00004294 (0x7 bytes), align: 0
  Segment part 545.           Intra module refs:   __cli::?relay
           LOCAL                   ADDRESS         
           =====                   =======         
           __cli                   0000428E 
               XSTACK = 0000000F ( 00000000 )
    -------------------------------------------------------------------------
XDATA_I
  Relative segment, address: XDATA 00001384 - 0000138D (0xa bytes), align: 0
  Segment part 300.           Intra module refs:   Segment part 262
           ENTRY                   ADDRESS         REF BY
           =====                   =======         ======
           MS_MODULE               00001384 
    -------------------------------------------------------------------------
XDATA_Z
  Relative segment, address: XDATA 00000464 - 00001057 (0xbf4 bytes), align: 0
  Segment part 302.           Intra module refs:   SL_alloc
                                                   SL_find_rx
                                                   SL_find_tx
                                                   SL_rx_slots
                                                   SL_tx_slots
                                                   SW_Init
           LOCAL                   ADDRESS         
           =====                   =======         
           SLOT_POOL               00000464 
    -------------------------------------------------------------------------
XDATA_Z
  Relative segment, address: XDATA 00001058 - 00001059 (0x2 bytes), align: 0
  Segment part 303.           Intra module refs:   SL_alloc
                                                   SW_Init
                                                   _free
           LOCAL                   ADDRESS         
           =====                   =======         
           slot_busy               00001058 
    -------------------------------------------------------------------------
<BANKED_CODE> 1 (was BANKED_CODE)
  Relative segment, address: CODE 00004295 - 00004319 (0x85 bytes), align: 0
  Segment part 547.           Intra module refs:   SW_Init::?relay
           LOCAL                   ADDRESS         
           =====                   =======         
           SW_Init                 00004295 
               calls direct, is indirectly called
               XSTACK = 00000000 ( 0000000D )
    -------------------------------------------------------------------------
CODE_C
  Relative segment, address: CODE 0000145E - 00001461 (0x4 bytes), align: 0
  Segment part 304.           Intra module refs:   SW_Init
    -------------------------------------------------------------------------
<BANKED_CODE> 1 (was BANKED_CODE)
  Relative segment, address: CODE 0000431A - 00004327 (0xe bytes), align: 0
  Segment part 549.           Intra module refs:   SW_restart::?relay
           ENTRY                   ADDRESS         REF BY
           =====                   =======         ======
           SW_restart              0000431A 
               calls direct
               ISTACK = 00000000 ( 00000002 )
    -------------------------------------------------------------------------
<BANKED_CODE> 1 (was BANKED_CODE)
  Relative segment, address: CODE 00004328 - 0000435F (0x38 bytes), align: 0
  Segment part 551.           Intra module refs:   SL_rx_slots::?relay
           ENTRY                   ADDRESS         REF BY
           =====                   =======         ======
           SL_rx_slots             00004328 
               ISTACK = 00000000 ( 00000002 )
    -------------------------------------------------------------------------
<BANKED_CODE> 1 (was BANKED_CODE)
  Relative segment, address: CODE 00004360 - 00004397 (0x38 bytes), align: 0
  Segment part 553.           Intra module refs:   SL_tx_slots::?relay
           ENTRY                   ADDRESS         REF BY
           =====                   =======         ======
           SL_tx_slots             00004360 
               ISTACK = 00000000 ( 00000002 )
    -------------------------------------------------------------------------
<BANKED_CODE> 1 (was BANKED_CODE)
  Relative segment, address: CODE 00004398 - 00004418 (0x81 bytes), align: 0
  Segment part 555.           Intra module refs:   SL_find_tx::?relay
           ENTRY                   ADDRESS         REF BY
           =====                   =======         ======
           SL_find_tx              00004398 
               XSTACK = 00000009 ( 00000000 )
               ISTACK = 00000000 ( 00000002 )
    -------------------------------------------------------------------------
<BANKED_CODE> 1 (was BANKED_CODE)
  Relative segment, address: CODE 00004419 - 00004499 (0x81 bytes), align: 0
  Segment part 557.           Intra module refs:   SL_find_rx::?relay
           ENTRY                   ADDRESS         REF BY
           =====                   =======         ======
           SL_find_rx              00004419 
               XSTACK = 00000009 ( 00000000 )
               ISTACK = 00000000 ( 00000002 )
    -------------------------------------------------------------------------
<BANKED_CODE> 1 (was BANKED_CODE)
  Relative segment, address: CODE 0000449A - 00004548 (0xaf bytes), align: 0
  Segment part 559.           Intra module refs:   SL_alloc::?relay
           ENTRY                   ADDRESS         REF BY
           =====                   =======         ======
           SL_alloc                0000449A 
               calls direct
               XSTACK = 00000000 ( 0000000F )
    -------------------------------------------------------------------------
CODE_C
  Relative segment, address: CODE 00001462 - 00001465 (0x4 bytes), align: 0
  Segment part 305.           Intra module refs:   SL_alloc
    -------------------------------------------------------------------------
<BANKED_CODE> 1 (was BANKED_CODE)
  Relative segment, address: CODE 00004549 - 00004580 (0x38 bytes), align: 0
  Segment part 561.           Intra module refs:   _free::?relay
           LOCAL                   ADDRESS         
           =====                   =======         
           _free                   00004549 
               XSTACK = 00000009 ( 00000000 )
               ISTACK = 00000000 ( 00000002 )
    -------------------------------------------------------------------------
<BANKED_CODE> 1 (was BANKED_CODE)
  Relative segment, address: CODE 00004581 - 000045B4 (0x34 bytes), align: 0
  Segment part 567.           Intra module refs:   SL_set_tx::?relay
           ENTRY                   ADDRESS         REF BY
           =====                   =======         ======
           SL_set_tx               00004581 
               calls direct
               XSTACK = 00000009 ( 00000009 )
    -------------------------------------------------------------------------
<BANKED_CODE> 1 (was BANKED_CODE)
  Relative segment, address: CODE 000045B5 - 000045E8 (0x34 bytes), align: 0
  Segment part 569.           Intra module refs:   SL_set_rx::?relay
           ENTRY                   ADDRESS         REF BY
           =====                   =======         ======
           SL_set_rx               000045B5 
               calls direct
               XSTACK = 00000009 ( 00000009 )
    -------------------------------------------------------------------------
<BANKED_CODE> 1 (was BANKED_CODE)
  Relative segment, address: CODE 000045E9 - 00004619 (0x31 bytes), align: 0
  Segment part 571.           Intra module refs:   SL_free::?relay
           ENTRY                   ADDRESS         REF BY
           =====                   =======         ======
           SL_free                 000045E9 
               calls direct
               XSTACK = 00000009 ( 00000009 )
    -------------------------------------------------------------------------
<BANKED_CODE> 1 (was BANKED_CODE)
  Relative segment, address: CODE 0000461A - 0000468D (0x74 bytes), align: 0
  Segment part 579.           Intra module refs:   MEM_memcpy::?relay
           ENTRY                   ADDRESS         REF BY
           =====                   =======         ======
           MEM_memcpy              0000461A 
               XSTACK = 00000054 ( 00000000 )
               ISTACK = 00000000 ( 00000003 )
    -------------------------------------------------------------------------
<BANKED_CODE> 1 (was BANKED_CODE)
  Relative segment, address: CODE 0000468E - 000046DC (0x4f bytes), align: 0
  Segment part 581.           Intra module refs:   MEM_memset::?relay
           ENTRY                   ADDRESS         REF BY
           =====                   =======         ======
           MEM_memset              0000468E 
               XSTACK = 00000012 ( 00000000 )
               ISTACK = 00000000 ( 00000003 )
    -------------------------------------------------------------------------
XDATA_Z
  Relative segment, address: XDATA 0000105A - 0000111F (0xc6 bytes), align: 0
  Segment part 306.           Intra module refs:   AES_StreamCoder
                                                   Cold_Start
                                                   Hot_Start
                                                   MAC_Receive
                                                   MAC_Send
                                                   Neocore_start
                                                   RI_Receive
                                                   RI_Send
                                                   RI_Send_time
                                                   RI_SetChannel
                                                   RecvData
                                                   SW_Init
                                                   Segment part 279
                                                   Segment part 280
                                                   Segment part 281
                                                   Segment part 282
                                                   SendData
                                                   TM_IRQ
                                                   accept_sync_data
                                                   cmd_0x00
                                                   cmd_0x01
                                                   cmd_0x02
                                                   cmd_0x03
                                                   cmd_0x04
                                                   cmd_0x05
                                                   cmd_0x07
                                                   cmd_0x08
                                                   cmd_0x09
                                                   cmd_0x0A
                                                   cmd_0x0B
                                                   cmd_0x0C
                                                   cmd_0x0D
                                                   cmd_0x0E
                                                   cmd_0x0F
                                                   cmd_0x10
                                                   cmd_0x11
                                                   energy_scan
                                                   main
                                                   mode_1_process
                                                   mode_1_receive_process
                                                   mode_2_process
                                                   pre_config
                                                   receive
                                                   recv_sync
                                                   send_sync
                                                   setFreq
                                                   start_mode_1
                                                   syncronize_timer
                                                   transmite
                                                   validate_sync
           ENTRY                   ADDRESS         REF BY
           =====                   =======         ======
           MODEL                   0000105A 
    -------------------------------------------------------------------------
XDATA_I
  Relative segment, address: XDATA 0000138E - 00001397 (0xa bytes), align: 0
  Segment part 307.           Intra module refs:   Segment part 262
           ENTRY                   ADDRESS         REF BY
           =====                   =======         ======
           MD_MODULE               0000138E 
    -------------------------------------------------------------------------
<BANKED_CODE> 1 (was BANKED_CODE)
  Relative segment, address: CODE 000046DD - 0000474E (0x72 bytes), align: 0
  Segment part 583.           Intra module refs:   SW_Init::?relay
           LOCAL                   ADDRESS         
           =====                   =======         
           SW_Init                 000046DD 
               is indirectly called
               ISTACK = 00000000 ( 00000002 )
    -------------------------------------------------------------------------
XDATA_I
  Relative segment, address: XDATA 00001398 - 000013A1 (0xa bytes), align: 0
  Segment part 309.           Intra module refs:   Segment part 260
                                                   Segment part 262
           ENTRY                   ADDRESS         REF BY
           =====                   =======         ======
           RADIO_MODULE            00001398 
    -------------------------------------------------------------------------
XDATA_Z
  Relative segment, address: XDATA 00001120 - 0000119F (0x80 bytes), align: 0
  Segment part 311.           Intra module refs:   RI_Receive
           LOCAL                   ADDRESS         
           =====                   =======         
           RXBUFF                  00001120 
    -------------------------------------------------------------------------
<BANKED_CODE> 1 (was BANKED_CODE)
  Relative segment, address: CODE 0000474F - 0000478C (0x3e bytes), align: 0
  Segment part 585.           Intra module refs:   SW_Init::?relay
           LOCAL                   ADDRESS         
           =====                   =======         
           SW_Init                 0000474F 
               calls direct, is indirectly called
               ISTACK = 00000000 ( 00000002 )
    -------------------------------------------------------------------------
<BANKED_CODE> 1 (was BANKED_CODE)
  Relative segment, address: CODE 0000478D - 000047CB (0x3f bytes), align: 0
  Segment part 587.           Intra module refs:   HW_Init::?relay
           LOCAL                   ADDRESS         
           =====                   =======         
           HW_Init                 0000478D 
               is indirectly called
               XSTACK = 00000000 ( 00000001 )
               ISTACK = 00000000 ( 00000003 )
    -------------------------------------------------------------------------
<BANKED_CODE> 1 (was BANKED_CODE)
  Relative segment, address: CODE 000047CC - 00004843 (0x78 bytes), align: 0
  Segment part 589.           Intra module refs:   setFreq::?relay
           LOCAL                   ADDRESS         
           =====                   =======         
           setFreq                 000047CC 
               calls direct
               XSTACK = 00000000 ( 0000000D )
               ISTACK = 00000000 ( 00000001 )
    -------------------------------------------------------------------------
<BANKED_CODE> 1 (was BANKED_CODE)
  Relative segment, address: CODE 00004844 - 0000485E (0x1b bytes), align: 0
  Segment part 591.           Intra module refs:   pre_config::?relay
           LOCAL                   ADDRESS         
           =====                   =======         
           pre_config              00004844 
               calls direct
               XSTACK = 00000024 ( 00000000 )
               ISTACK = 00000000 ( 00000002 )
    -------------------------------------------------------------------------
<BANKED_CODE> 1 (was BANKED_CODE)
  Relative segment, address: CODE 0000485F - 0000487E (0x20 bytes), align: 0
  Segment part 593.           Intra module refs:   RI_SetChannel::?relay
           ENTRY                   ADDRESS         REF BY
           =====                   =======         ======
           RI_SetChannel           0000485F 
               XSTACK = 0000003F ( 00000000 )
               ISTACK = 00000000 ( 00000002 )
    -------------------------------------------------------------------------
<BANKED_CODE> 1 (was BANKED_CODE)
  Relative segment, address: CODE 0000487F - 000048B4 (0x36 bytes), align: 0
  Segment part 595.           Intra module refs:   LoadTXData::?relay
           LOCAL                   ADDRESS         
           =====                   =======         
           LoadTXData              0000487F 
               XSTACK = 0000003D ( 00000000 )
               ISTACK = 00000000 ( 00000002 )
    -------------------------------------------------------------------------
<BANKED_CODE> 1 (was BANKED_CODE)
  Relative segment, address: CODE 000048B5 - 000049A7 (0xf3 bytes), align: 0
  Segment part 597.           Intra module refs:   SendData::?relay
           LOCAL                   ADDRESS         
           =====                   =======         
           SendData                000048B5 
               calls direct
               XSTACK = 00000020 ( 0000003D )
    -------------------------------------------------------------------------
<BANKED_CODE> 1 (was BANKED_CODE)
  Relative segment, address: CODE 000049A8 - 00004AAA (0x103 bytes), align: 0
  Segment part 599.           Intra module refs:   RI_Send::?relay
           ENTRY                   ADDRESS         REF BY
           =====                   =======         ======
           RI_Send                 000049A8 
               calls direct
               XSTACK = 0000000D ( 00000022 )
    -------------------------------------------------------------------------
<BANKED_CODE> 1 (was BANKED_CODE)
  Relative segment, address: CODE 00004AAB - 00004BBD (0x113 bytes), align: 0
  Segment part 601.           Intra module refs:   RI_Send_time::?relay
           ENTRY                   ADDRESS         REF BY
           =====                   =======         ======
           RI_Send_time            00004AAB 
               calls direct
               XSTACK = 00000015 ( 00000024 )
    -------------------------------------------------------------------------
<BANKED_CODE> 1 (was BANKED_CODE)
  Relative segment, address: CODE 00004BBE - 00004BE9 (0x2c bytes), align: 0
  Segment part 603.           Intra module refs:   UnLoadRXData::?relay
           LOCAL                   ADDRESS         
           =====                   =======         
           UnLoadRXData            00004BBE 
               XSTACK = 00000024 ( 00000000 )
               ISTACK = 00000000 ( 00000003 )
    -------------------------------------------------------------------------
<BANKED_CODE> 1 (was BANKED_CODE)
  Relative segment, address: CODE 00004BEA - 00004CB4 (0xcb bytes), align: 0
  Segment part 605.           Intra module refs:   RecvData::?relay
           LOCAL                   ADDRESS         
           =====                   =======         
           RecvData                00004BEA 
               calls direct
               XSTACK = 00000026 ( 00000047 )
    -------------------------------------------------------------------------
<BANKED_CODE> 1 (was BANKED_CODE)
  Relative segment, address: CODE 00004CB5 - 00004F07 (0x253 bytes), align: 0
  Segment part 607.           Intra module refs:   RI_Receive::?relay
           ENTRY                   ADDRESS         REF BY
           =====                   =======         ======
           RI_Receive              00004CB5 
               calls direct
               XSTACK = 0000003F ( 00000028 )
               ISTACK = 00000000 ( 00000001 )
    -------------------------------------------------------------------------
<BANKED_CODE> 1 (was BANKED_CODE)
  Relative segment, address: CODE 00004F08 - 00004F29 (0x22 bytes), align: 0
  Segment part 609.           Intra module refs:   bits_count::?relay
           LOCAL                   ADDRESS         
           =====                   =======         
           bits_count              00004F08 
               XSTACK = 00000009 ( 00000000 )
    -------------------------------------------------------------------------
<BANKED_CODE> 1 (was BANKED_CODE)
  Relative segment, address: CODE 00004F2A - 00004F5E (0x35 bytes), align: 0
  Segment part 611.           Intra module refs:   getRNDByte::?relay
           LOCAL                   ADDRESS         
           =====                   =======         
           getRNDByte              00004F2A 
               XSTACK = 00000009 ( 00000000 )
               ISTACK = 00000000 ( 00000002 )
    -------------------------------------------------------------------------
<BANKED_CODE> 1 (was BANKED_CODE)
  Relative segment, address: CODE 00004F5F - 00004F94 (0x36 bytes), align: 0
  Segment part 613.           Intra module refs:   readRandom::?relay
           LOCAL                   ADDRESS         
           =====                   =======         
           readRandom              00004F5F 
               calls direct
               XSTACK = 00000009 ( 00000009 )
    -------------------------------------------------------------------------
<BANKED_CODE> 1 (was BANKED_CODE)
  Relative segment, address: CODE 00004F95 - 00004FE2 (0x4e bytes), align: 0
  Segment part 615.           Intra module refs:   random_core_init::?relay
           LOCAL                   ADDRESS         
           =====                   =======         
           random_core_init        00004F95 
               calls direct
               XSTACK = 00000000 ( 00000009 )
    -------------------------------------------------------------------------
<BANKED_CODE> 1 (was BANKED_CODE)
  Relative segment, address: CODE 00004FE3 - 00005042 (0x60 bytes), align: 0
  Segment part 617.           Intra module refs:   RI_Measure_POW::?relay
           ENTRY                   ADDRESS         REF BY
           =====                   =======         ======
           RI_Measure_POW          00004FE3 
               calls direct
               XSTACK = 00000011 ( 0000000E )
               ISTACK = 00000000 ( 00000001 )
    -------------------------------------------------------------------------
XDATA_I
  Relative segment, address: XDATA 000013A2 - 000013AB (0xa bytes), align: 0
  Segment part 312.           Intra module refs:   Segment part 258
           ENTRY                   ADDRESS         REF BY
           =====                   =======         ======
           RTC_MODULE              000013A2 
    -------------------------------------------------------------------------
<BANKED_CODE> 1 (was BANKED_CODE)
  Relative segment, address: CODE 00005043 - 00005045 (0x3 bytes), align: 0
  Segment part 619.           Intra module refs:   SW_Init::?relay
           LOCAL                   ADDRESS         
           =====                   =======         
           SW_Init                 00005043 
               is indirectly called
    -------------------------------------------------------------------------
<BANKED_CODE> 1 (was BANKED_CODE)
  Relative segment, address: CODE 00005046 - 00005048 (0x3 bytes), align: 0
  Segment part 621.           Intra module refs:   Cold_Start::?relay
           LOCAL                   ADDRESS         
           =====                   =======         
           Cold_Start              00005046 
               is indirectly called
    -------------------------------------------------------------------------
<BANKED_CODE> 1 (was BANKED_CODE)
  Relative segment, address: CODE 00005049 - 00005078 (0x30 bytes), align: 0
  Segment part 623.           Intra module refs:   Hot_Start::?relay
           LOCAL                   ADDRESS         
           =====                   =======         
           Hot_Start               00005049 
               is indirectly called
               XSTACK = 00000000 ( 0000000C )
    -------------------------------------------------------------------------
XDATA_Z
  Relative segment, address: XDATA 000011A0 - 000011A0 (0x1 bytes), align: 0
  Segment part 314.           Intra module refs:   SW_Init
                                                   mode_1_process
                                                   mode_1_receive_process
                                                   mode_1_retransmition_process
           LOCAL                   ADDRESS         
           =====                   =======         
           retransmite             000011A0 
    -------------------------------------------------------------------------
XDATA_I
  Relative segment, address: XDATA 000013AC - 000013B5 (0xa bytes), align: 0
  Segment part 315.           Intra module refs:   Segment part 256
                                                   Segment part 258
                                                   Segment part 262
           ENTRY                   ADDRESS         REF BY
           =====                   =======         ======
           SYNC_MODULE             000013AC 
    -------------------------------------------------------------------------
<BANKED_CODE> 1 (was BANKED_CODE)
  Relative segment, address: CODE 00005079 - 000050CB (0x53 bytes), align: 0
  Segment part 625.           Intra module refs:   SW_Init::?relay
           LOCAL                   ADDRESS         
           =====                   =======         
           SW_Init                 00005079 
               is indirectly called
               ISTACK = 00000000 ( 00000002 )
    -------------------------------------------------------------------------
<BANKED_CODE> 1 (was BANKED_CODE)
  Relative segment, address: CODE 000050CC - 000050CE (0x3 bytes), align: 0
  Segment part 629.           Intra module refs:   Cold_Start::?relay
           LOCAL                   ADDRESS         
           =====                   =======         
           Cold_Start              000050CC 
               is indirectly called
    -------------------------------------------------------------------------
<BANKED_CODE> 1 (was BANKED_CODE)
  Relative segment, address: CODE 000050CF - 00005109 (0x3b bytes), align: 0
  Segment part 631.           Intra module refs:   validate_sync::?relay
           LOCAL                   ADDRESS         
           =====                   =======         
           validate_sync           000050CF 
               XSTACK = 0000000E ( 0000000C )
    -------------------------------------------------------------------------
<BANKED_CODE> 1 (was BANKED_CODE)
  Relative segment, address: CODE 0000510A - 00005123 (0x1a bytes), align: 0
  Segment part 633.           Intra module refs:   accept_sync_data::?relay
           LOCAL                   ADDRESS         
           =====                   =======         
           accept_sync_data        0000510A 
               XSTACK = 0000000E ( 00000009 )
    -------------------------------------------------------------------------
<BANKED_CODE> 1 (was BANKED_CODE)
  Relative segment, address: CODE 00005124 - 000051C5 (0xa2 bytes), align: 0
  Segment part 635.           Intra module refs:   syncronize_timer::?relay
           LOCAL                   ADDRESS         
           =====                   =======         
           syncronize_timer        00005124 
               calls direct
               XSTACK = 00000049 ( 00000010 )
    -------------------------------------------------------------------------
<BANKED_CODE> 1 (was BANKED_CODE)
  Relative segment, address: CODE 000051C6 - 000052A1 (0xdc bytes), align: 0
  Segment part 637.           Intra module refs:   mode_1_receive_process::?relay
           LOCAL                   ADDRESS         
           =====                   =======         
           mode_1_receive_process
                                   000051C6 
               calls direct
               XSTACK = 0000000C ( 00000010 )
    -------------------------------------------------------------------------
<BANKED_CODE> 1 (was BANKED_CODE)
  Relative segment, address: CODE 000052A2 - 000052D5 (0x34 bytes), align: 0
  Segment part 639.           Intra module refs:   _throw_dice::?relay
           LOCAL                   ADDRESS         
           =====                   =======         
           _throw_dice             000052A2 
               calls direct
               XSTACK = 00000000 ( 0000000A )
    -------------------------------------------------------------------------
<BANKED_CODE> 1 (was BANKED_CODE)
  Relative segment, address: CODE 000052D6 - 000052F5 (0x20 bytes), align: 0
  Segment part 641.           Intra module refs:   mode_1_retransmition_process::?relay
           LOCAL                   ADDRESS         
           =====                   =======         
           mode_1_retransmition_process
                                   000052D6 
               calls direct
               XSTACK = 0000000C ( 00000000 )
               ISTACK = 00000000 ( 00000002 )
    -------------------------------------------------------------------------
<BANKED_CODE> 1 (was BANKED_CODE)
  Relative segment, address: CODE 000052F6 - 0000538D (0x98 bytes), align: 0
  Segment part 643.           Intra module refs:   mode_1_process::?relay
           LOCAL                   ADDRESS         
           =====                   =======         
           mode_1_process          000052F6 
               calls direct
               XSTACK = 0000000A ( 0000000E )
               ISTACK = 00000000 ( 00000002 )
    -------------------------------------------------------------------------
<BANKED_CODE> 1 (was BANKED_CODE)
  Relative segment, address: CODE 0000538E - 00005421 (0x94 bytes), align: 0
  Segment part 645.           Intra module refs:   energy_scan::?relay
           LOCAL                   ADDRESS         
           =====                   =======         
           energy_scan             0000538E 
               calls direct
               XSTACK = 0000000C ( 0000000F )
               ISTACK = 00000000 ( 00000001 )
    -------------------------------------------------------------------------
XDATA_I
  Relative segment, address: XDATA 000013B6 - 000013B6 (0x1 bytes), align: 0
  Segment part 317.           Intra module refs:   energy_scan
           LOCAL                   ADDRESS         
           =====                   =======         
           energy_scan::scan_channel
                                   000013B6 
    -------------------------------------------------------------------------
<BANKED_CODE> 1 (was BANKED_CODE)
  Relative segment, address: CODE 00005422 - 00005461 (0x40 bytes), align: 0
  Segment part 647.           Intra module refs:   mode_2_process::?relay
           LOCAL                   ADDRESS         
           =====                   =======         
           mode_2_process          00005422 
               calls direct
               XSTACK = 0000000A ( 0000000C )
    -------------------------------------------------------------------------
<BANKED_CODE> 1 (was BANKED_CODE)
  Relative segment, address: CODE 00005462 - 000054B8 (0x57 bytes), align: 0
  Segment part 649.           Intra module refs:   Hot_Start::?relay
           LOCAL                   ADDRESS         
           =====                   =======         
           Hot_Start               00005462 
               calls direct, is indirectly called
               XSTACK = 00000000 ( 0000000C )
    -------------------------------------------------------------------------
<BANKED_CODE> 1 (was BANKED_CODE)
  Relative segment, address: CODE 000054B9 - 000055AB (0xf3 bytes), align: 0
  Segment part 651.           Intra module refs:   recv_sync::?relay
           LOCAL                   ADDRESS         
           =====                   =======         
           recv_sync               000054B9 
               calls direct
               XSTACK = 0000000E ( 00000041 )
    -------------------------------------------------------------------------
<BANKED_CODE> 1 (was BANKED_CODE)
  Relative segment, address: CODE 000055AC - 0000571E (0x173 bytes), align: 0
  Segment part 653.           Intra module refs:   send_sync::?relay
           LOCAL                   ADDRESS         
           =====                   =======         
           send_sync               000055AC 
               calls direct
               XSTACK = 0000000C ( 00000017 )
               ISTACK = 00000000 ( 00000001 )
    -------------------------------------------------------------------------
<BANKED_CODE> 1 (was BANKED_CODE)
  Relative segment, address: CODE 0000571F - 00005725 (0x7 bytes), align: 0
  Segment part 659.           Intra module refs:   __cli::?relay
           LOCAL                   ADDRESS         
           =====                   =======         
           __cli                   0000571F 
               XSTACK = 00000009 ( 00000000 )
    -------------------------------------------------------------------------
XDATA_Z
  Relative segment, address: XDATA 000011A1 - 000011D2 (0x32 bytes), align: 0
  Segment part 319.           Intra module refs:   TM_ClrAlarm
                                                   TM_IRQ
                                                   TM_SetAlarm
                                                   _clr_all
                                                   _find_next_active
           LOCAL                   ADDRESS         
           =====                   =======         
           ALARMS                  000011A1 
    -------------------------------------------------------------------------
<BANKED_CODE> 1 (was BANKED_CODE)
  Relative segment, address: CODE 00005726 - 00005780 (0x5b bytes), align: 0
  Segment part 661.           Intra module refs:   TM_SetAlarm::?relay
           ENTRY                   ADDRESS         REF BY
           =====                   =======         ======
           TM_SetAlarm             00005726 
               calls direct
               XSTACK = 0000000A ( 0000000C )
    -------------------------------------------------------------------------
<BANKED_CODE> 1 (was BANKED_CODE)
  Relative segment, address: CODE 00005781 - 000057DE (0x5e bytes), align: 0
  Segment part 663.           Intra module refs:   TM_ClrAlarm::?relay
           ENTRY                   ADDRESS         REF BY
           =====                   =======         ======
           TM_ClrAlarm             00005781 
               calls direct
               XSTACK = 0000000E ( 0000000C )
    -------------------------------------------------------------------------
<BANKED_CODE> 1 (was BANKED_CODE)
  Relative segment, address: CODE 000057DF - 000057F0 (0x12 bytes), align: 0
  Segment part 665.           Intra module refs:   _inc_timeslot::?relay
           LOCAL                   ADDRESS         
           =====                   =======         
           _inc_timeslot           000057DF 
               XSTACK = 00000009 ( 00000000 )
    -------------------------------------------------------------------------
<BANKED_CODE> 1 (was BANKED_CODE)
  Relative segment, address: CODE 000057F1 - 00005822 (0x32 bytes), align: 0
  Segment part 667.           Intra module refs:   _find_next_active::?relay
           LOCAL                   ADDRESS         
           =====                   =======         
           _find_next_active       000057F1 
               calls direct
               XSTACK = 00000009 ( 00000009 )
    -------------------------------------------------------------------------
<BANKED_CODE> 1 (was BANKED_CODE)
  Relative segment, address: CODE 00005823 - 00005863 (0x41 bytes), align: 0
  Segment part 669.           Intra module refs:   scheulder_next_alarm::?relay
           LOCAL                   ADDRESS         
           =====                   =======         
           scheulder_next_alarm    00005823 
               calls direct
               XSTACK = 00000009 ( 00000009 )
    -------------------------------------------------------------------------
<BANKED_CODE> 1 (was BANKED_CODE)
  Relative segment, address: CODE 00005864 - 000058D1 (0x6e bytes), align: 0
  Segment part 671.           Intra module refs:   TM_IRQ::?relay
           ENTRY                   ADDRESS         REF BY
           =====                   =======         ======
           TM_IRQ                  00005864 
               calls direct
               XSTACK = 0000000F ( 00000009 )
    -------------------------------------------------------------------------
<BANKED_CODE> 1 (was BANKED_CODE)
  Relative segment, address: CODE 000058D2 - 000058DA (0x9 bytes), align: 0
  Segment part 673.           Intra module refs:   mcu_sleep::?relay
           LOCAL                   ADDRESS         
           =====                   =======         
           mcu_sleep               000058D2 
    -------------------------------------------------------------------------
<BANKED_CODE> 1 (was BANKED_CODE)
  Relative segment, address: CODE 000058DB - 000058FC (0x22 bytes), align: 0
  Segment part 675.           Intra module refs:   _clr_all::?relay
           LOCAL                   ADDRESS         
           =====                   =======         
           _clr_all                000058DB 
               ISTACK = 00000000 ( 00000002 )
    -------------------------------------------------------------------------
<BANKED_CODE> 1 (was BANKED_CODE)
  Relative segment, address: CODE 000058FD - 00005916 (0x1a bytes), align: 0
  Segment part 677.           Intra module refs:   init::?relay
           LOCAL                   ADDRESS         
           =====                   =======         
           init                    000058FD 
               calls direct
               ISTACK = 00000000 ( 00000002 )
    -------------------------------------------------------------------------
<BANKED_CODE> 1 (was BANKED_CODE)
  Relative segment, address: CODE 00005917 - 0000593C (0x26 bytes), align: 0
  Segment part 679.           Intra module refs:   start_mode_1::?relay
           LOCAL                   ADDRESS         
           =====                   =======         
           start_mode_1            00005917 
               calls direct
               XSTACK = 0000000A ( 00000000 )
               ISTACK = 00000000 ( 00000002 )
    -------------------------------------------------------------------------
<BANKED_CODE> 1 (was BANKED_CODE)
  Relative segment, address: CODE 0000593D - 0000594D (0x11 bytes), align: 0
  Segment part 681.           Intra module refs:   start_mode_2::?relay
           LOCAL                   ADDRESS         
           =====                   =======         
           start_mode_2            0000593D 
               calls direct
               XSTACK = 0000000A ( 00000000 )
               ISTACK = 00000000 ( 00000002 )
    -------------------------------------------------------------------------
<BANKED_CODE> 1 (was BANKED_CODE)
  Relative segment, address: CODE 0000594E - 000059A4 (0x57 bytes), align: 0
  Segment part 683.           Intra module refs:   Neocore_start::?relay
           ENTRY                   ADDRESS         REF BY
           =====                   =======         ======
           Neocore_start           0000594E 
               calls direct
               XSTACK = 0000000E ( 0000000C )
    -------------------------------------------------------------------------
XDATA_Z
  Relative segment, address: XDATA 000011D3 - 000012D1 (0xff bytes), align: 0
  Segment part 320.           Intra module refs:   uart_dma_init
                                                   uart_recv_cmd
           LOCAL                   ADDRESS         
           =====                   =======         
           uart_rx_buff            000011D3 
    -------------------------------------------------------------------------
<BANKED_CODE> 1 (was BANKED_CODE)
  Relative segment, address: CODE 000059A5 - 00005A28 (0x84 bytes), align: 0
  Segment part 685.           Intra module refs:   uart_dma_init::?relay
           LOCAL                   ADDRESS         
           =====                   =======         
           uart_dma_init           000059A5 
               XSTACK = 00000009 ( 00000000 )
               ISTACK = 00000000 ( 00000002 )
    -------------------------------------------------------------------------
<BANKED_CODE> 1 (was BANKED_CODE)
  Relative segment, address: CODE 00005A29 - 00005A51 (0x29 bytes), align: 0
  Segment part 687.           Intra module refs:   uart_recv_cmd::?relay
           ENTRY                   ADDRESS         REF BY
           =====                   =======         ======
           uart_recv_cmd           00005A29 
               XSTACK = 0000000D ( 00000000 )
               ISTACK = 00000000 ( 00000003 )
    -------------------------------------------------------------------------
<BANKED_CODE> 1 (was BANKED_CODE)
  Relative segment, address: CODE 00005A52 - 00005A73 (0x22 bytes), align: 0
  Segment part 689.           Intra module refs:   com_uart_init::?relay
           ENTRY                   ADDRESS         REF BY
           =====                   =======         ======
           com_uart_init           00005A52 
               calls direct
               XSTACK = 00000000 ( 00000009 )
    -------------------------------------------------------------------------
<BANKED_CODE> 1 (was BANKED_CODE)
  Relative segment, address: CODE 00005A74 - 00005AA3 (0x30 bytes), align: 0
  Segment part 691.           Intra module refs:   uart_write::?relay
           ENTRY                   ADDRESS         REF BY
           =====                   =======         ======
           uart_write              00005A74 
               calls direct
               XSTACK = 00000012 ( 0000000A )
    -------------------------------------------------------------------------
<BANKED_CODE> 1 (was BANKED_CODE)
  Relative segment, address: CODE 00005AA4 - 00005AAC (0x9 bytes), align: 0
  Segment part 693.           Intra module refs:   uart_putchar::?relay
           LOCAL                   ADDRESS         
           =====                   =======         
           uart_putchar            00005AA4 
               XSTACK = 0000000A ( 00000000 )
    -------------------------------------------------------------------------
CODE_C
  Relative segment, address: CODE 00001466 - 00001469 (0x4 bytes), align: 0
  Segment part 321.           Intra module refs:   UST_interval
                                                   _interval
           LOCAL                   ADDRESS         
           =====                   =======         
           MAC_TIMER_MAX           00001466 
    -------------------------------------------------------------------------
XDATA_Z
  Relative segment, address: XDATA 000012D2 - 000012D5 (0x4 bytes), align: 0
  Segment part 322.           Intra module refs:   DelayCalibrate
                                                   UST_delay
           LOCAL                   ADDRESS         
           =====                   =======         
           DELAY_CALIBRATE_TICS    000012D2 
    -------------------------------------------------------------------------
XDATA_I
  Relative segment, address: XDATA 000013B7 - 000013C0 (0xa bytes), align: 0
  Segment part 323.           Intra module refs:   Segment part 260
           ENTRY                   ADDRESS         REF BY
           =====                   =======         ======
           UST_MODULE              000013B7 
    -------------------------------------------------------------------------
<BANKED_CODE> 1 (was BANKED_CODE)
  Relative segment, address: CODE 00005AAD - 00005ABD (0x11 bytes), align: 0
  Segment part 697.           Intra module refs:   HW_Init::?relay
           LOCAL                   ADDRESS         
           =====                   =======         
           HW_Init                 00005AAD 
               calls direct, is indirectly called
               ISTACK = 00000000 ( 00000002 )
    -------------------------------------------------------------------------
<BANKED_CODE> 1 (was BANKED_CODE)
  Relative segment, address: CODE 00005ABE - 00005B0C (0x4f bytes), align: 0
  Segment part 699.           Intra module refs:   UST_now::?relay
           ENTRY                   ADDRESS         REF BY
           =====                   =======         ======
           UST_now                 00005ABE 
               XSTACK = 00000049 ( 00000004 )
               ISTACK = 00000000 ( 00000003 )
    -------------------------------------------------------------------------
<BANKED_CODE> 1 (was BANKED_CODE)
  Relative segment, address: CODE 00005B0D - 00005B78 (0x6c bytes), align: 0
  Segment part 701.           Intra module refs:   UST_time_over::?relay
           ENTRY                   ADDRESS         REF BY
           =====                   =======         ======
           UST_time_over           00005B0D 
               calls direct
               XSTACK = 0000004D ( 0000001C )
    -------------------------------------------------------------------------
<BANKED_CODE> 1 (was BANKED_CODE)
  Relative segment, address: CODE 00005B79 - 00005C05 (0x8d bytes), align: 0
  Segment part 703.           Intra module refs:   UST_interval::?relay
           ENTRY                   ADDRESS         REF BY
           =====                   =======         ======
           UST_interval            00005B79 
               XSTACK = 00000028 ( 00000018 )
    -------------------------------------------------------------------------
<BANKED_CODE> 1 (was BANKED_CODE)
  Relative segment, address: CODE 00005C06 - 00005CC4 (0xbf bytes), align: 0
  Segment part 705.           Intra module refs:   UST_delay::?relay
           ENTRY                   ADDRESS         REF BY
           =====                   =======         ======
           UST_delay               00005C06 
               calls direct
               XSTACK = 00000014 ( 00000020 )
    -------------------------------------------------------------------------
<BANKED_CODE> 1 (was BANKED_CODE)
  Relative segment, address: CODE 00005CC5 - 00005D43 (0x7f bytes), align: 0
  Segment part 707.           Intra module refs:   _interval::?relay
           ENTRY                   ADDRESS         REF BY
           =====                   =======         ======
           _interval               00005CC5 
               XSTACK = 00000018 ( 00000018 )
    -------------------------------------------------------------------------
<BANKED_CODE> 1 (was BANKED_CODE)
  Relative segment, address: CODE 00005D44 - 00005DC0 (0x7d bytes), align: 0
  Segment part 709.           Intra module refs:   DelayCalibrate::?relay
           LOCAL                   ADDRESS         
           =====                   =======         
           DelayCalibrate          00005D44 
               calls direct
               XSTACK = 00000000 ( 00000018 )
    -------------------------------------------------------------------------
INTVEC
  Common segment, address: CODE 00000000 - 0000002D (0x2e bytes), align: 0
  Segment part 41. ROOT 
           ENTRY                   ADDRESS         REF BY
           =====                   =======         ======
           TimerCompareInterrupt::??INTVEC 43
                                   0000002B 
    -------------------------------------------------------------------------
XDATA_ID
  Relative segment, address: CODE 000000B5 - 000000BA (0x6 bytes), align: 0
  Segment part 256.           Intra module refs:   COLD_MOD
    -------------------------------------------------------------------------
XDATA_ID
  Relative segment, address: CODE 000000BB - 000000C2 (0x8 bytes), align: 0
  Segment part 258.           Intra module refs:   HOT_MOD
    -------------------------------------------------------------------------
XDATA_ID
  Relative segment, address: CODE 000000C3 - 000000D2 (0x10 bytes), align: 0
  Segment part 260.           Intra module refs:   HW_MOD
    -------------------------------------------------------------------------
XDATA_ID
  Relative segment, address: CODE 000000D3 - 000000E0 (0xe bytes), align: 0
  Segment part 262.           Intra module refs:   SW_MOD
    -------------------------------------------------------------------------
XDATA_ID
  Relative segment, address: CODE 000000E1 - 000000E4 (0x4 bytes), align: 0
  Segment part 264.           Intra module refs:   IRQ_MOD
    -------------------------------------------------------------------------
XDATA_ID
  Relative segment, address: CODE 000000E5 - 000000EE (0xa bytes), align: 0
  Segment part 267.           Intra module refs:   AT_MODULE
    -------------------------------------------------------------------------
XDATA_ID
  Relative segment, address: CODE 000000EF - 00000112 (0x24 bytes), align: 0
  Segment part 275.           Intra module refs:   CMD_LIST
    -------------------------------------------------------------------------
XDATA_ID
  Relative segment, address: CODE 00000113 - 0000011C (0xa bytes), align: 0
  Segment part 277.           Intra module refs:   CODER_MODULE
    -------------------------------------------------------------------------
XDATA_ID
  Relative segment, address: CODE 0000011D - 00000126 (0xa bytes), align: 0
  Segment part 284.           Intra module refs:   CPU_MODULE
    -------------------------------------------------------------------------
XDATA_ID
  Relative segment, address: CODE 00000127 - 00000130 (0xa bytes), align: 0
  Segment part 286.           Intra module refs:   DBG_MODULE
    -------------------------------------------------------------------------
XDATA_ID
  Relative segment, address: CODE 00000131 - 0000013A (0xa bytes), align: 0
  Segment part 288.           Intra module refs:   DMA_MODULE
    -------------------------------------------------------------------------
XDATA_ID
  Relative segment, address: CODE 0000013B - 00000144 (0xa bytes), align: 0
  Segment part 291.           Intra module refs:   FR_MODULE
    -------------------------------------------------------------------------
XDATA_ID
  Relative segment, address: CODE 00000145 - 0000014E (0xa bytes), align: 0
  Segment part 294.           Intra module refs:   LED_MODULE
    -------------------------------------------------------------------------
XDATA_ID
  Relative segment, address: CODE 0000014F - 00000158 (0xa bytes), align: 0
  Segment part 296.           Intra module refs:   LLC_MODULE
    -------------------------------------------------------------------------
XDATA_ID
  Relative segment, address: CODE 00000159 - 00000162 (0xa bytes), align: 0
  Segment part 299.           Intra module refs:   MAC_MODULE
    -------------------------------------------------------------------------
XDATA_ID
  Relative segment, address: CODE 00000163 - 0000016C (0xa bytes), align: 0
  Segment part 301.           Intra module refs:   MS_MODULE
    -------------------------------------------------------------------------
XDATA_ID
  Relative segment, address: CODE 0000016D - 00000176 (0xa bytes), align: 0
  Segment part 308.           Intra module refs:   MD_MODULE
    -------------------------------------------------------------------------
XDATA_ID
  Relative segment, address: CODE 00000177 - 00000180 (0xa bytes), align: 0
  Segment part 310.           Intra module refs:   RADIO_MODULE
    -------------------------------------------------------------------------
XDATA_ID
  Relative segment, address: CODE 00000181 - 0000018A (0xa bytes), align: 0
  Segment part 313.           Intra module refs:   RTC_MODULE
    -------------------------------------------------------------------------
XDATA_ID
  Relative segment, address: CODE 0000018B - 00000194 (0xa bytes), align: 0
  Segment part 316.           Intra module refs:   SYNC_MODULE
    -------------------------------------------------------------------------
XDATA_ID
  Relative segment, address: CODE 00000195 - 00000195 (0x1 bytes), align: 0
  Segment part 318.           Intra module refs:   energy_scan::scan_channel
    -------------------------------------------------------------------------
XDATA_ID
  Relative segment, address: CODE 00000196 - 0000019F (0xa bytes), align: 0
  Segment part 324.           Intra module refs:   UST_MODULE
    -------------------------------------------------------------------------
BANK_RELAYS
  Relative segment, address: CODE 000001A4 - 000001A9 (0x6 bytes), align: 0
  Segment part 342.           Intra module refs:   start_mode_1
           ENTRY                   ADDRESS         REF BY
           =====                   =======         ======
           AM_Callback::?relay     000001A4 
    -------------------------------------------------------------------------
BANK_RELAYS
  Relative segment, address: CODE 000001AA - 000001AF (0x6 bytes), align: 0
  Segment part 344.           Intra module refs:   TM_IRQ
           ENTRY                   ADDRESS         REF BY
           =====                   =======         ======
           AM_Cold_start::?relay   000001AA 
    -------------------------------------------------------------------------
BANK_RELAYS
  Relative segment, address: CODE 000001B0 - 000001B5 (0x6 bytes), align: 0
  Segment part 346.           Intra module refs:   TM_IRQ
           ENTRY                   ADDRESS         REF BY
           =====                   =======         ======
           AM_Hot_start::?relay    000001B0 
    -------------------------------------------------------------------------
BANK_RELAYS
  Relative segment, address: CODE 000001B6 - 000001BB (0x6 bytes), align: 0
  Segment part 348.           Intra module refs:   pre_init
           ENTRY                   ADDRESS         REF BY
           =====                   =======         ======
           AM_HW_Init::?relay      000001B6 
    -------------------------------------------------------------------------
BANK_RELAYS
  Relative segment, address: CODE 000001BC - 000001C1 (0x6 bytes), align: 0
  Segment part 350.           Intra module refs:   pre_init
           ENTRY                   ADDRESS         REF BY
           =====                   =======         ======
           AM_SW_Init::?relay      000001BC 
    -------------------------------------------------------------------------
BANK_RELAYS
  Relative segment, address: CODE 000001C2 - 000001C7 (0x6 bytes), align: 0
  Segment part 352.           Intra module refs:   start_mode_1
                                                   start_mode_2
           ENTRY                   ADDRESS         REF BY
           =====                   =======         ======
           AM_IRQ_Init::?relay     000001C2 
    -------------------------------------------------------------------------
BANK_RELAYS
  Relative segment, address: CODE 000001C8 - 000001CD (0x6 bytes), align: 0
  Segment part 354.           Intra module refs:   AT_enable
           LOCAL                   ADDRESS         
           =====                   =======         
           __cli::?relay           000001C8 
    -------------------------------------------------------------------------
BANK_RELAYS
  Relative segment, address: CODE 000001CE - 000001D3 (0x6 bytes), align: 0
  Segment part 356.           Intra module refs:   Segment part 267
           LOCAL                   ADDRESS         
           =====                   =======         
           HW_Init::?relay         000001CE 
    -------------------------------------------------------------------------
BANK_RELAYS
  Relative segment, address: CODE 000001D4 - 000001D9 (0x6 bytes), align: 0
  Segment part 358.           Intra module refs:   TM_IRQ
                                                   init
                                                   start_mode_1
           ENTRY                   ADDRESS         REF BY
           =====                   =======         ======
           AT_enable::?relay       000001D4 
    -------------------------------------------------------------------------
BANK_RELAYS
  Relative segment, address: CODE 000001DA - 000001DF (0x6 bytes), align: 0
  Segment part 360.           Intra module refs:   syncronize_timer
           ENTRY                   ADDRESS         REF BY
           =====                   =======         ======
           AT_interval::?relay     000001DA 
    -------------------------------------------------------------------------
BANK_RELAYS
  Relative segment, address: CODE 000001E0 - 000001E5 (0x6 bytes), align: 0
  Segment part 362.           Intra module refs:   syncronize_timer
           ENTRY                   ADDRESS         REF BY
           =====                   =======         ======
           AT_set_time::?relay     000001E0 
    -------------------------------------------------------------------------
BANK_RELAYS
  Relative segment, address: CODE 000001E6 - 000001EB (0x6 bytes), align: 0
  Segment part 364.           Intra module refs:   RecvData
                                                   SendData
                                                   TimerCompareInterrupt
                                                   _recv_frame
                                                   syncronize_timer
           ENTRY                   ADDRESS         REF BY
           =====                   =======         ======
           AT_time::?relay         000001E6 
    -------------------------------------------------------------------------
BANK_RELAYS
  Relative segment, address: CODE 000001EC - 000001F1 (0x6 bytes), align: 0
  Segment part 366.           Intra module refs:   SendData
                                                   recv_sync
           ENTRY                   ADDRESS         REF BY
           =====                   =======         ======
           AT_wait::?relay         000001EC 
    -------------------------------------------------------------------------
BANK_RELAYS
  Relative segment, address: CODE 000001F2 - 000001F7 (0x6 bytes), align: 0
  Segment part 368.           Intra module refs:   AT_enable
                                                   AT_set_alarm
                                                   HW_Init
                                                   TimerCompareInterrupt
           LOCAL                   ADDRESS         
           =====                   =======         
           IRQEnable::?relay       000001F2 
    -------------------------------------------------------------------------
BANK_RELAYS
  Relative segment, address: CODE 000001F8 - 000001FD (0x6 bytes), align: 0
  Segment part 370.           Intra module refs:   AT_set_time
                                                   scheulder_next_alarm
           ENTRY                   ADDRESS         REF BY
           =====                   =======         ======
           AT_set_alarm::?relay    000001F8 
    -------------------------------------------------------------------------
BANK_RELAYS
  Relative segment, address: CODE 000001FE - 00000203 (0x6 bytes), align: 0
  Segment part 372.           Intra module refs:   AT_set_alarm
           LOCAL                   ADDRESS         
           =====                   =======         
           calcCompareTime::?relay
                                   000001FE 
    -------------------------------------------------------------------------
BANK_RELAYS
  Relative segment, address: CODE 00000204 - 00000209 (0x6 bytes), align: 0
  Segment part 374.           Intra module refs:   AT_set_time
                                                   AT_time
                                                   calcCompareTime
           LOCAL                   ADDRESS         
           =====                   =======         
           ReadTimer::?relay       00000204 
    -------------------------------------------------------------------------
BANK_RELAYS
  Relative segment, address: CODE 0000020A - 0000020F (0x6 bytes), align: 0
  Segment part 376.           Intra module refs:   AT_set_alarm
           LOCAL                   ADDRESS         
           =====                   =======         
           loadTimerCompare::?relay
                                   0000020A 
    -------------------------------------------------------------------------
BANK_RELAYS
  Relative segment, address: CODE 00000210 - 00000215 (0x6 bytes), align: 0
  Segment part 378.           Intra module refs:   AT_set_time
           LOCAL                   ADDRESS         
           =====                   =======         
           isIRQEnable::?relay     00000210 
    -------------------------------------------------------------------------
BANK_RELAYS
  Relative segment, address: CODE 00000216 - 0000021B (0x6 bytes), align: 0
  Segment part 380.           Intra module refs:   Segment part 275
           ENTRY                   ADDRESS         REF BY
           =====                   =======         ======
           cmd_0x00::?relay        00000216 
    -------------------------------------------------------------------------
BANK_RELAYS
  Relative segment, address: CODE 0000021C - 00000221 (0x6 bytes), align: 0
  Segment part 382.           Intra module refs:   Segment part 275
           ENTRY                   ADDRESS         REF BY
           =====                   =======         ======
           cmd_0x01::?relay        0000021C 
    -------------------------------------------------------------------------
BANK_RELAYS
  Relative segment, address: CODE 00000222 - 00000227 (0x6 bytes), align: 0
  Segment part 384.           Intra module refs:   Segment part 275
           ENTRY                   ADDRESS         REF BY
           =====                   =======         ======
           cmd_0x02::?relay        00000222 
    -------------------------------------------------------------------------
BANK_RELAYS
  Relative segment, address: CODE 00000228 - 0000022D (0x6 bytes), align: 0
  Segment part 386.           Intra module refs:   Segment part 275
           ENTRY                   ADDRESS         REF BY
           =====                   =======         ======
           cmd_0x03::?relay        00000228 
    -------------------------------------------------------------------------
BANK_RELAYS
  Relative segment, address: CODE 0000022E - 00000233 (0x6 bytes), align: 0
  Segment part 388.           Intra module refs:   Segment part 275
           ENTRY                   ADDRESS         REF BY
           =====                   =======         ======
           cmd_0x04::?relay        0000022E 
    -------------------------------------------------------------------------
BANK_RELAYS
  Relative segment, address: CODE 00000234 - 00000239 (0x6 bytes), align: 0
  Segment part 390.           Intra module refs:   Segment part 275
           ENTRY                   ADDRESS         REF BY
           =====                   =======         ======
           cmd_0x05::?relay        00000234 
    -------------------------------------------------------------------------
BANK_RELAYS
  Relative segment, address: CODE 0000023A - 0000023F (0x6 bytes), align: 0
  Segment part 392.           Intra module refs:   Segment part 275
           ENTRY                   ADDRESS         REF BY
           =====                   =======         ======
           cmd_0x06::?relay        0000023A 
    -------------------------------------------------------------------------
BANK_RELAYS
  Relative segment, address: CODE 00000240 - 00000245 (0x6 bytes), align: 0
  Segment part 394.           Intra module refs:   Segment part 275
           ENTRY                   ADDRESS         REF BY
           =====                   =======         ======
           cmd_0x07::?relay        00000240 
    -------------------------------------------------------------------------
BANK_RELAYS
  Relative segment, address: CODE 00000246 - 0000024B (0x6 bytes), align: 0
  Segment part 396.           Intra module refs:   Segment part 275
           ENTRY                   ADDRESS         REF BY
           =====                   =======         ======
           cmd_0x08::?relay        00000246 
    -------------------------------------------------------------------------
BANK_RELAYS
  Relative segment, address: CODE 0000024C - 00000251 (0x6 bytes), align: 0
  Segment part 398.           Intra module refs:   Segment part 275
           ENTRY                   ADDRESS         REF BY
           =====                   =======         ======
           cmd_0x09::?relay        0000024C 
    -------------------------------------------------------------------------
BANK_RELAYS
  Relative segment, address: CODE 00000252 - 00000257 (0x6 bytes), align: 0
  Segment part 400.           Intra module refs:   Segment part 275
           ENTRY                   ADDRESS         REF BY
           =====                   =======         ======
           cmd_0x0A::?relay        00000252 
    -------------------------------------------------------------------------
BANK_RELAYS
  Relative segment, address: CODE 00000258 - 0000025D (0x6 bytes), align: 0
  Segment part 402.           Intra module refs:   Segment part 275
           ENTRY                   ADDRESS         REF BY
           =====                   =======         ======
           cmd_0x0B::?relay        00000258 
    -------------------------------------------------------------------------
BANK_RELAYS
  Relative segment, address: CODE 0000025E - 00000263 (0x6 bytes), align: 0
  Segment part 404.           Intra module refs:   Segment part 275
           ENTRY                   ADDRESS         REF BY
           =====                   =======         ======
           cmd_0x0C::?relay        0000025E 
    -------------------------------------------------------------------------
BANK_RELAYS
  Relative segment, address: CODE 00000264 - 00000269 (0x6 bytes), align: 0
  Segment part 406.           Intra module refs:   cmd_0x0C
           LOCAL                   ADDRESS         
           =====                   =======         
           upload_frame::?relay    00000264 
    -------------------------------------------------------------------------
BANK_RELAYS
  Relative segment, address: CODE 0000026A - 0000026F (0x6 bytes), align: 0
  Segment part 408.           Intra module refs:   upload_frame
           LOCAL                   ADDRESS         
           =====                   =======         
           mem_move::?relay        0000026A 
    -------------------------------------------------------------------------
BANK_RELAYS
  Relative segment, address: CODE 00000270 - 00000275 (0x6 bytes), align: 0
  Segment part 410.           Intra module refs:   Segment part 275
           ENTRY                   ADDRESS         REF BY
           =====                   =======         ======
           cmd_0x0D::?relay        00000270 
    -------------------------------------------------------------------------
BANK_RELAYS
  Relative segment, address: CODE 00000276 - 0000027B (0x6 bytes), align: 0
  Segment part 412.           Intra module refs:   Segment part 275
           ENTRY                   ADDRESS         REF BY
           =====                   =======         ======
           cmd_0x0E::?relay        00000276 
    -------------------------------------------------------------------------
BANK_RELAYS
  Relative segment, address: CODE 0000027C - 00000281 (0x6 bytes), align: 0
  Segment part 414.           Intra module refs:   Segment part 275
           ENTRY                   ADDRESS         REF BY
           =====                   =======         ======
           cmd_0x0F::?relay        0000027C 
    -------------------------------------------------------------------------
BANK_RELAYS
  Relative segment, address: CODE 00000282 - 00000287 (0x6 bytes), align: 0
  Segment part 416.           Intra module refs:   Segment part 275
           ENTRY                   ADDRESS         REF BY
           =====                   =======         ======
           cmd_0x10::?relay        00000282 
    -------------------------------------------------------------------------
BANK_RELAYS
  Relative segment, address: CODE 00000288 - 0000028D (0x6 bytes), align: 0
  Segment part 418.           Intra module refs:   Segment part 275
           ENTRY                   ADDRESS         REF BY
           =====                   =======         ======
           cmd_0x11::?relay        00000288 
    -------------------------------------------------------------------------
BANK_RELAYS
  Relative segment, address: CODE 0000028E - 00000293 (0x6 bytes), align: 0
  Segment part 420.           Intra module refs:   main
           ENTRY                   ADDRESS         REF BY
           =====                   =======         ======
           parse_uart_stream::?relay
                                   0000028E 
    -------------------------------------------------------------------------
BANK_RELAYS
  Relative segment, address: CODE 00000294 - 00000299 (0x6 bytes), align: 0
  Segment part 422.           Intra module refs:   cmd_0x00
                                                   cmd_0x01
                                                   cmd_0x02
                                                   cmd_0x03
                                                   cmd_0x04
                                                   cmd_0x05
                                                   cmd_0x06
                                                   cmd_0x07
                                                   cmd_0x08
                                                   cmd_0x09
                                                   cmd_0x0A
                                                   cmd_0x0B
                                                   cmd_0x0D
                                                   cmd_0x0E
                                                   cmd_0x0F
                                                   cmd_0x10
                                                   cmd_0x11
                                                   upload_frame
           ENTRY                   ADDRESS         REF BY
           =====                   =======         ======
           cmd_answer::?relay      00000294 
    -------------------------------------------------------------------------
BANK_RELAYS
  Relative segment, address: CODE 0000029A - 0000029F (0x6 bytes), align: 0
  Segment part 424.           Intra module refs:   cmd_0x01
                                                   cmd_0x02
                                                   cmd_0x03
                                                   cmd_0x04
                                                   cmd_0x05
                                                   cmd_0x06
                                                   cmd_0x07
                                                   cmd_0x08
                                                   cmd_0x09
                                                   cmd_0x0A
                                                   cmd_0x0B
                                                   cmd_0x0C
                                                   cmd_0x0D
                                                   cmd_0x0E
                                                   cmd_0x0F
                                                   cmd_0x10
                                                   cmd_0x11
                                                   parse_uart_stream
           ENTRY                   ADDRESS         REF BY
           =====                   =======         ======
           cmd_answer_err::?relay
                                   0000029A 
    -------------------------------------------------------------------------
BANK_RELAYS
  Relative segment, address: CODE 000002A0 - 000002A5 (0x6 bytes), align: 0
  Segment part 426.           Intra module refs:   cmd_answer_err
           ENTRY                   ADDRESS         REF BY
           =====                   =======         ======
           stream_write::?relay    000002A0 
    -------------------------------------------------------------------------
BANK_RELAYS
  Relative segment, address: CODE 000002A6 - 000002AB (0x6 bytes), align: 0
  Segment part 428.           Intra module refs:   parse_uart_stream
           LOCAL                   ADDRESS         
           =====                   =======         
           check_cmd_frame::?relay
                                   000002A6 
    -------------------------------------------------------------------------
BANK_RELAYS
  Relative segment, address: CODE 000002AC - 000002B1 (0x6 bytes), align: 0
  Segment part 430.           Intra module refs:   cmd_answer
                                                   stream_write
           LOCAL                   ADDRESS         
           =====                   =======         
           crc16::?relay           000002AC 
    -------------------------------------------------------------------------
BANK_RELAYS
  Relative segment, address: CODE 000002B2 - 000002B7 (0x6 bytes), align: 0
  Segment part 432.           Intra module refs:   Segment part 277
           LOCAL                   ADDRESS         
           =====                   =======         
           HW_Init::?relay         000002B2 
    -------------------------------------------------------------------------
BANK_RELAYS
  Relative segment, address: CODE 000002B8 - 000002BD (0x6 bytes), align: 0
  Segment part 434.           Intra module refs:   LLC_add_tx_frame
                                                   MAC_Receive
                                                   recv_sync
                                                   send_sync
           ENTRY                   ADDRESS         REF BY
           =====                   =======         ======
           AES_StreamCoder::?relay
                                   000002B8 
    -------------------------------------------------------------------------
BANK_RELAYS
  Relative segment, address: CODE 000002BE - 000002C3 (0x6 bytes), align: 0
  Segment part 446.           Intra module refs:   Segment part 284
           LOCAL                   ADDRESS         
           =====                   =======         
           HW_Init::?relay         000002BE 
    -------------------------------------------------------------------------
BANK_RELAYS
  Relative segment, address: CODE 000002C4 - 000002C9 (0x6 bytes), align: 0
  Segment part 448.           Intra module refs:   Segment part 286
           LOCAL                   ADDRESS         
           =====                   =======         
           HW_Init::?relay         000002C4 
    -------------------------------------------------------------------------
BANK_RELAYS
  Relative segment, address: CODE 000002CA - 000002CF (0x6 bytes), align: 0
  Segment part 450.           Intra module refs:   AM_Callback
                                                   AM_Cold_start
                                                   AM_HW_Init
                                                   AM_Hot_start
                                                   AM_IRQ_Init
                                                   AM_SW_Init
                                                   AT_set_alarm
                                                   AT_set_time
                                                   AT_wait
                                                   Hot_Start
                                                   LLC_add_tx_frame
                                                   LLC_close_slot
                                                   LLC_open_slot
                                                   Neocore_start
                                                   RI_Receive
                                                   RI_Send
                                                   RI_Send_time
                                                   TM_ClrAlarm
                                                   TM_SetAlarm
                                                   _recv_frame
                                                   _send_frame
                                                   cmd_0x0B
                                                   recv_sync
                                                   scheduler_rx
                                                   scheduler_tx
                                                   send_sync
                                                   setFreq
                                                   stream_write
                                                   transmite
           ENTRY                   ADDRESS         REF BY
           =====                   =======         ======
           DBG_CORE_HALT::?relay   000002CA 
    -------------------------------------------------------------------------
BANK_RELAYS
  Relative segment, address: CODE 000002D0 - 000002D5 (0x6 bytes), align: 0
  Segment part 454.           Intra module refs:   HW_Init
           LOCAL                   ADDRESS         
           =====                   =======         
           uart_init::?relay       000002D0 
    -------------------------------------------------------------------------
BANK_RELAYS
  Relative segment, address: CODE 000002D6 - 000002DB (0x6 bytes), align: 0
  Segment part 456.           Intra module refs:   Segment part 288
           LOCAL                   ADDRESS         
           =====                   =======         
           HW_Init::?relay         000002D6 
    -------------------------------------------------------------------------
BANK_RELAYS
  Relative segment, address: CODE 000002DC - 000002E1 (0x6 bytes), align: 0
  Segment part 458.           Intra module refs:   Segment part 291
           LOCAL                   ADDRESS         
           =====                   =======         
           SW_Init::?relay         000002DC 
    -------------------------------------------------------------------------
BANK_RELAYS
  Relative segment, address: CODE 000002E2 - 000002E7 (0x6 bytes), align: 0
  Segment part 460.           Intra module refs:   Neocore_start
           ENTRY                   ADDRESS         REF BY
           =====                   =======         ======
           FR_restart::?relay      000002E2 
    -------------------------------------------------------------------------
BANK_RELAYS
  Relative segment, address: CODE 000002E8 - 000002ED (0x6 bytes), align: 0
  Segment part 462.           Intra module refs:   RI_Receive
                                                   _send_ack
                                                   cmd_0x0B
                                                   send_sync
           ENTRY                   ADDRESS         REF BY
           =====                   =======         ======
           FR_create::?relay       000002E8 
    -------------------------------------------------------------------------
BANK_RELAYS
  Relative segment, address: CODE 000002EE - 000002F3 (0x6 bytes), align: 0
  Segment part 464.           Intra module refs:   MAC_Send
                                                   _send_ack
                                                   cmd_0x0B
                                                   cmd_0x0C
                                                   mode_1_receive_process
                                                   recv_sync
                                                   send_sync
           ENTRY                   ADDRESS         REF BY
           =====                   =======         ======
           FR_delete::?relay       000002EE 
    -------------------------------------------------------------------------
BANK_RELAYS
  Relative segment, address: CODE 000002F4 - 000002F9 (0x6 bytes), align: 0
  Segment part 466.           Intra module refs:   FR_add_header
           LOCAL                   ADDRESS         
           =====                   =======         
           mem_move::?relay        000002F4 
    -------------------------------------------------------------------------
BANK_RELAYS
  Relative segment, address: CODE 000002FA - 000002FF (0x6 bytes), align: 0
  Segment part 468.           Intra module refs:   RI_Receive
                                                   _send_ack
                                                   cmd_0x0B
                                                   send_sync
           ENTRY                   ADDRESS         REF BY
           =====                   =======         ======
           FR_add_header::?relay   000002FA 
    -------------------------------------------------------------------------
BANK_RELAYS
  Relative segment, address: CODE 00000300 - 00000305 (0x6 bytes), align: 0
  Segment part 472.           Intra module refs:   MAC_Receive
           ENTRY                   ADDRESS         REF BY
           =====                   =======         ======
           FR_set_rx::?relay       00000300 
    -------------------------------------------------------------------------
BANK_RELAYS
  Relative segment, address: CODE 00000306 - 0000030B (0x6 bytes), align: 0
  Segment part 474.           Intra module refs:   LLC_add_tx_frame
           ENTRY                   ADDRESS         REF BY
           =====                   =======         ======
           FR_set_tx::?relay       00000306 
    -------------------------------------------------------------------------
BANK_RELAYS
  Relative segment, address: CODE 0000030C - 00000311 (0x6 bytes), align: 0
  Segment part 480.           Intra module refs:   cmd_0x09
           ENTRY                   ADDRESS         REF BY
           =====                   =======         ======
           FR_rx_frames::?relay    0000030C 
    -------------------------------------------------------------------------
BANK_RELAYS
  Relative segment, address: CODE 00000312 - 00000317 (0x6 bytes), align: 0
  Segment part 482.           Intra module refs:   cmd_0x0A
           ENTRY                   ADDRESS         REF BY
           =====                   =======         ======
           FR_tx_frames::?relay    00000312 
    -------------------------------------------------------------------------
BANK_RELAYS
  Relative segment, address: CODE 00000318 - 0000031D (0x6 bytes), align: 0
  Segment part 486.           Intra module refs:   scheduler_tx
           ENTRY                   ADDRESS         REF BY
           =====                   =======         ======
           FR_find_tx::?relay      00000318 
    -------------------------------------------------------------------------
BANK_RELAYS
  Relative segment, address: CODE 0000031E - 00000323 (0x6 bytes), align: 0
  Segment part 488.           Intra module refs:   cmd_0x0C
           ENTRY                   ADDRESS         REF BY
           =====                   =======         ======
           FR_find_rx::?relay      0000031E 
    -------------------------------------------------------------------------
BANK_RELAYS
  Relative segment, address: CODE 00000324 - 00000329 (0x6 bytes), align: 0
  Segment part 492.           Intra module refs:   Segment part 294
           LOCAL                   ADDRESS         
           =====                   =======         
           HW_Init::?relay         00000324 
    -------------------------------------------------------------------------
BANK_RELAYS
  Relative segment, address: CODE 0000032A - 0000032F (0x6 bytes), align: 0
  Segment part 494.           Intra module refs:   Segment part 294
           LOCAL                   ADDRESS         
           =====                   =======         
           SW_Init::?relay         0000032A 
    -------------------------------------------------------------------------
BANK_RELAYS
  Relative segment, address: CODE 00000330 - 00000335 (0x6 bytes), align: 0
  Segment part 496.           Intra module refs:   Segment part 294
           LOCAL                   ADDRESS         
           =====                   =======         
           Cold_Start::?relay      00000330 
    -------------------------------------------------------------------------
BANK_RELAYS
  Relative segment, address: CODE 00000336 - 0000033B (0x6 bytes), align: 0
  Segment part 498.           Intra module refs:   Segment part 294
           LOCAL                   ADDRESS         
           =====                   =======         
           Hot_Start::?relay       00000336 
    -------------------------------------------------------------------------
BANK_RELAYS
  Relative segment, address: CODE 0000033C - 00000341 (0x6 bytes), align: 0
  Segment part 500.           Intra module refs:   Segment part 296
           LOCAL                   ADDRESS         
           =====                   =======         
           IRQ_Init::?relay        0000033C 
    -------------------------------------------------------------------------
BANK_RELAYS
  Relative segment, address: CODE 00000342 - 00000347 (0x6 bytes), align: 0
  Segment part 502.           Intra module refs:   LLC_restart
                                                   Segment part 296
           LOCAL                   ADDRESS         
           =====                   =======         
           SW_Init::?relay         00000342 
    -------------------------------------------------------------------------
BANK_RELAYS
  Relative segment, address: CODE 00000348 - 0000034D (0x6 bytes), align: 0
  Segment part 504.           Intra module refs:   Neocore_start
           ENTRY                   ADDRESS         REF BY
           =====                   =======         ======
           LLC_restart::?relay     00000348 
    -------------------------------------------------------------------------
BANK_RELAYS
  Relative segment, address: CODE 0000034E - 00000353 (0x6 bytes), align: 0
  Segment part 506.           Intra module refs:   cmd_0x07
           ENTRY                   ADDRESS         REF BY
           =====                   =======         ======
           LLC_open_slot::?relay   0000034E 
    -------------------------------------------------------------------------
BANK_RELAYS
  Relative segment, address: CODE 00000354 - 00000359 (0x6 bytes), align: 0
  Segment part 508.           Intra module refs:   cmd_0x08
           ENTRY                   ADDRESS         REF BY
           =====                   =======         ======
           LLC_close_slot::?relay
                                   00000354 
    -------------------------------------------------------------------------
BANK_RELAYS
  Relative segment, address: CODE 0000035A - 0000035F (0x6 bytes), align: 0
  Segment part 510.           Intra module refs:   cmd_0x0B
           ENTRY                   ADDRESS         REF BY
           =====                   =======         ======
           LLC_add_tx_frame::?relay
                                   0000035A 
    -------------------------------------------------------------------------
BANK_RELAYS
  Relative segment, address: CODE 00000360 - 00000365 (0x6 bytes), align: 0
  Segment part 512.           Intra module refs:   Cold_Start
           LOCAL                   ADDRESS         
           =====                   =======         
           scheduler_tx::?relay    00000360 
    -------------------------------------------------------------------------
BANK_RELAYS
  Relative segment, address: CODE 00000366 - 0000036B (0x6 bytes), align: 0
  Segment part 514.           Intra module refs:   Cold_Start
           LOCAL                   ADDRESS         
           =====                   =======         
           scheduler_rx::?relay    00000366 
    -------------------------------------------------------------------------
BANK_RELAYS
  Relative segment, address: CODE 0000036C - 00000371 (0x6 bytes), align: 0
  Segment part 516.           Intra module refs:   Segment part 296
           LOCAL                   ADDRESS         
           =====                   =======         
           Cold_Start::?relay      0000036C 
    -------------------------------------------------------------------------
BANK_RELAYS
  Relative segment, address: CODE 00000372 - 00000377 (0x6 bytes), align: 0
  Segment part 518.           Intra module refs:   Hot_Start
           LOCAL                   ADDRESS         
           =====                   =======         
           receive::?relay         00000372 
    -------------------------------------------------------------------------
BANK_RELAYS
  Relative segment, address: CODE 00000378 - 0000037D (0x6 bytes), align: 0
  Segment part 520.           Intra module refs:   Hot_Start
           LOCAL                   ADDRESS         
           =====                   =======         
           transmite::?relay       00000378 
    -------------------------------------------------------------------------
BANK_RELAYS
  Relative segment, address: CODE 0000037E - 00000383 (0x6 bytes), align: 0
  Segment part 522.           Intra module refs:   Segment part 296
           LOCAL                   ADDRESS         
           =====                   =======         
           Hot_Start::?relay       0000037E 
    -------------------------------------------------------------------------
BANK_RELAYS
  Relative segment, address: CODE 00000384 - 00000389 (0x6 bytes), align: 0
  Segment part 524.           Intra module refs:   Segment part 299
           LOCAL                   ADDRESS         
           =====                   =======         
           SW_Init::?relay         00000384 
    -------------------------------------------------------------------------
BANK_RELAYS
  Relative segment, address: CODE 0000038A - 0000038F (0x6 bytes), align: 0
  Segment part 526.           Intra module refs:   Segment part 299
           LOCAL                   ADDRESS         
           =====                   =======         
           IRQ_Init::?relay        0000038A 
    -------------------------------------------------------------------------
BANK_RELAYS
  Relative segment, address: CODE 00000390 - 00000395 (0x6 bytes), align: 0
  Segment part 528.           Intra module refs:   MAC_Receive
           LOCAL                   ADDRESS         
           =====                   =======         
           _recv_frame::?relay     00000390 
    -------------------------------------------------------------------------
BANK_RELAYS
  Relative segment, address: CODE 00000396 - 0000039B (0x6 bytes), align: 0
  Segment part 530.           Intra module refs:   _send_ack
           LOCAL                   ADDRESS         
           =====                   =======         
           xor_calc::?relay        00000396 
    -------------------------------------------------------------------------
BANK_RELAYS
  Relative segment, address: CODE 0000039C - 000003A1 (0x6 bytes), align: 0
  Segment part 532.           Intra module refs:   MAC_Receive
           LOCAL                   ADDRESS         
           =====                   =======         
           _send_ack::?relay       0000039C 
    -------------------------------------------------------------------------
BANK_RELAYS
  Relative segment, address: CODE 000003A2 - 000003A7 (0x6 bytes), align: 0
  Segment part 534.           Intra module refs:   receive
           ENTRY                   ADDRESS         REF BY
           =====                   =======         ======
           MAC_Receive::?relay     000003A2 
    -------------------------------------------------------------------------
BANK_RELAYS
  Relative segment, address: CODE 000003A8 - 000003AD (0x6 bytes), align: 0
  Segment part 536.           Intra module refs:   MAC_Send
           LOCAL                   ADDRESS         
           =====                   =======         
           _send_frame::?relay     000003A8 
    -------------------------------------------------------------------------
BANK_RELAYS
  Relative segment, address: CODE 000003AE - 000003B3 (0x6 bytes), align: 0
  Segment part 538.           Intra module refs:   MAC_Send
           LOCAL                   ADDRESS         
           =====                   =======         
           _recv_ack::?relay       000003AE 
    -------------------------------------------------------------------------
BANK_RELAYS
  Relative segment, address: CODE 000003B4 - 000003B9 (0x6 bytes), align: 0
  Segment part 540.           Intra module refs:   transmite
           ENTRY                   ADDRESS         REF BY
           =====                   =======         ======
           MAC_Send::?relay        000003B4 
    -------------------------------------------------------------------------
BANK_RELAYS
  Relative segment, address: CODE 000003BA - 000003BF (0x6 bytes), align: 0
  Segment part 542.           Intra module refs:   main
           LOCAL                   ADDRESS         
           =====                   =======         
           pre_init::?relay        000003BA 
    -------------------------------------------------------------------------
BANK_RELAYS
  Relative segment, address: CODE 000003C0 - 000003C5 (0x6 bytes), align: 0
  Segment part 546.           Intra module refs:   SL_alloc
                                                   SL_free
                                                   SL_set_rx
                                                   SL_set_tx
           LOCAL                   ADDRESS         
           =====                   =======         
           __cli::?relay           000003C0 
    -------------------------------------------------------------------------
BANK_RELAYS
  Relative segment, address: CODE 000003C6 - 000003CB (0x6 bytes), align: 0
  Segment part 548.           Intra module refs:   SW_restart
                                                   Segment part 301
           LOCAL                   ADDRESS         
           =====                   =======         
           SW_Init::?relay         000003C6 
    -------------------------------------------------------------------------
BANK_RELAYS
  Relative segment, address: CODE 000003CC - 000003D1 (0x6 bytes), align: 0
  Segment part 550.           Intra module refs:   FR_restart
           ENTRY                   ADDRESS         REF BY
           =====                   =======         ======
           SW_restart::?relay      000003CC 
    -------------------------------------------------------------------------
BANK_RELAYS
  Relative segment, address: CODE 000003D2 - 000003D7 (0x6 bytes), align: 0
  Segment part 552.           Intra module refs:   FR_rx_frames
           ENTRY                   ADDRESS         REF BY
           =====                   =======         ======
           SL_rx_slots::?relay     000003D2 
    -------------------------------------------------------------------------
BANK_RELAYS
  Relative segment, address: CODE 000003D8 - 000003DD (0x6 bytes), align: 0
  Segment part 554.           Intra module refs:   FR_tx_frames
           ENTRY                   ADDRESS         REF BY
           =====                   =======         ======
           SL_tx_slots::?relay     000003D8 
    -------------------------------------------------------------------------
BANK_RELAYS
  Relative segment, address: CODE 000003DE - 000003E3 (0x6 bytes), align: 0
  Segment part 556.           Intra module refs:   FR_find_tx
           ENTRY                   ADDRESS         REF BY
           =====                   =======         ======
           SL_find_tx::?relay      000003DE 
    -------------------------------------------------------------------------
BANK_RELAYS
  Relative segment, address: CODE 000003E4 - 000003E9 (0x6 bytes), align: 0
  Segment part 558.           Intra module refs:   FR_find_rx
           ENTRY                   ADDRESS         REF BY
           =====                   =======         ======
           SL_find_rx::?relay      000003E4 
    -------------------------------------------------------------------------
BANK_RELAYS
  Relative segment, address: CODE 000003EA - 000003EF (0x6 bytes), align: 0
  Segment part 560.           Intra module refs:   FR_create
           ENTRY                   ADDRESS         REF BY
           =====                   =======         ======
           SL_alloc::?relay        000003EA 
    -------------------------------------------------------------------------
BANK_RELAYS
  Relative segment, address: CODE 000003F0 - 000003F5 (0x6 bytes), align: 0
  Segment part 562.           Intra module refs:   SL_free
           LOCAL                   ADDRESS         
           =====                   =======         
           _free::?relay           000003F0 
    -------------------------------------------------------------------------
BANK_RELAYS
  Relative segment, address: CODE 000003F6 - 000003FB (0x6 bytes), align: 0
  Segment part 568.           Intra module refs:   FR_set_tx
           ENTRY                   ADDRESS         REF BY
           =====                   =======         ======
           SL_set_tx::?relay       000003F6 
    -------------------------------------------------------------------------
BANK_RELAYS
  Relative segment, address: CODE 000003FC - 00000401 (0x6 bytes), align: 0
  Segment part 570.           Intra module refs:   FR_set_rx
           ENTRY                   ADDRESS         REF BY
           =====                   =======         ======
           SL_set_rx::?relay       000003FC 
    -------------------------------------------------------------------------
BANK_RELAYS
  Relative segment, address: CODE 00000402 - 00000407 (0x6 bytes), align: 0
  Segment part 572.           Intra module refs:   FR_delete
           ENTRY                   ADDRESS         REF BY
           =====                   =======         ======
           SL_free::?relay         00000402 
    -------------------------------------------------------------------------
BANK_RELAYS
  Relative segment, address: CODE 00000408 - 0000040D (0x6 bytes), align: 0
  Segment part 580.           Intra module refs:   FR_add_header
                                                   HW_Init
                                                   cmd_0x0B
           ENTRY                   ADDRESS         REF BY
           =====                   =======         ======
           MEM_memcpy::?relay      00000408 
    -------------------------------------------------------------------------
BANK_RELAYS
  Relative segment, address: CODE 0000040E - 00000413 (0x6 bytes), align: 0
  Segment part 582.           Intra module refs:   SL_alloc
                                                   SW_Init
           ENTRY                   ADDRESS         REF BY
           =====                   =======         ======
           MEM_memset::?relay      0000040E 
    -------------------------------------------------------------------------
BANK_RELAYS
  Relative segment, address: CODE 00000414 - 00000419 (0x6 bytes), align: 0
  Segment part 584.           Intra module refs:   Segment part 308
           LOCAL                   ADDRESS         
           =====                   =======         
           SW_Init::?relay         00000414 
    -------------------------------------------------------------------------
BANK_RELAYS
  Relative segment, address: CODE 0000041A - 0000041F (0x6 bytes), align: 0
  Segment part 586.           Intra module refs:   Segment part 310
           LOCAL                   ADDRESS         
           =====                   =======         
           SW_Init::?relay         0000041A 
    -------------------------------------------------------------------------
BANK_RELAYS
  Relative segment, address: CODE 00000420 - 00000425 (0x6 bytes), align: 0
  Segment part 588.           Intra module refs:   Segment part 310
           LOCAL                   ADDRESS         
           =====                   =======         
           HW_Init::?relay         00000420 
    -------------------------------------------------------------------------
BANK_RELAYS
  Relative segment, address: CODE 00000426 - 0000042B (0x6 bytes), align: 0
  Segment part 590.           Intra module refs:   pre_config
           LOCAL                   ADDRESS         
           =====                   =======         
           setFreq::?relay         00000426 
    -------------------------------------------------------------------------
BANK_RELAYS
  Relative segment, address: CODE 0000042C - 00000431 (0x6 bytes), align: 0
  Segment part 592.           Intra module refs:   RI_Receive
                                                   RI_Send
                                                   RI_Send_time
                                                   random_core_init
           LOCAL                   ADDRESS         
           =====                   =======         
           pre_config::?relay      0000042C 
    -------------------------------------------------------------------------
BANK_RELAYS
  Relative segment, address: CODE 00000432 - 00000437 (0x6 bytes), align: 0
  Segment part 594.           Intra module refs:   _recv_frame
                                                   _send_frame
                                                   recv_sync
                                                   send_sync
           ENTRY                   ADDRESS         REF BY
           =====                   =======         ======
           RI_SetChannel::?relay   00000432 
    -------------------------------------------------------------------------
BANK_RELAYS
  Relative segment, address: CODE 00000438 - 0000043D (0x6 bytes), align: 0
  Segment part 596.           Intra module refs:   SendData
           LOCAL                   ADDRESS         
           =====                   =======         
           LoadTXData::?relay      00000438 
    -------------------------------------------------------------------------
BANK_RELAYS
  Relative segment, address: CODE 0000043E - 00000443 (0x6 bytes), align: 0
  Segment part 598.           Intra module refs:   RI_Send
                                                   RI_Send_time
           LOCAL                   ADDRESS         
           =====                   =======         
           SendData::?relay        0000043E 
    -------------------------------------------------------------------------
BANK_RELAYS
  Relative segment, address: CODE 00000444 - 00000449 (0x6 bytes), align: 0
  Segment part 600.           Intra module refs:   _send_ack
                                                   _send_frame
           ENTRY                   ADDRESS         REF BY
           =====                   =======         ======
           RI_Send::?relay         00000444 
    -------------------------------------------------------------------------
BANK_RELAYS
  Relative segment, address: CODE 0000044A - 0000044F (0x6 bytes), align: 0
  Segment part 602.           Intra module refs:   send_sync
           ENTRY                   ADDRESS         REF BY
           =====                   =======         ======
           RI_Send_time::?relay    0000044A 
    -------------------------------------------------------------------------
BANK_RELAYS
  Relative segment, address: CODE 00000450 - 00000455 (0x6 bytes), align: 0
  Segment part 604.           Intra module refs:   RI_Receive
           LOCAL                   ADDRESS         
           =====                   =======         
           UnLoadRXData::?relay    00000450 
    -------------------------------------------------------------------------
BANK_RELAYS
  Relative segment, address: CODE 00000456 - 0000045B (0x6 bytes), align: 0
  Segment part 606.           Intra module refs:   RI_Receive
           LOCAL                   ADDRESS         
           =====                   =======         
           RecvData::?relay        00000456 
    -------------------------------------------------------------------------
BANK_RELAYS
  Relative segment, address: CODE 0000045C - 00000461 (0x6 bytes), align: 0
  Segment part 608.           Intra module refs:   _recv_frame
                                                   recv_sync
           ENTRY                   ADDRESS         REF BY
           =====                   =======         ======
           RI_Receive::?relay      0000045C 
    -------------------------------------------------------------------------
BANK_RELAYS
  Relative segment, address: CODE 00000462 - 00000467 (0x6 bytes), align: 0
  Segment part 610.           Intra module refs:   readRandom
           LOCAL                   ADDRESS         
           =====                   =======         
           bits_count::?relay      00000462 
    -------------------------------------------------------------------------
BANK_RELAYS
  Relative segment, address: CODE 00000468 - 0000046D (0x6 bytes), align: 0
  Segment part 612.           Intra module refs:   readRandom
           LOCAL                   ADDRESS         
           =====                   =======         
           getRNDByte::?relay      00000468 
    -------------------------------------------------------------------------
BANK_RELAYS
  Relative segment, address: CODE 0000046E - 00000473 (0x6 bytes), align: 0
  Segment part 614.           Intra module refs:   random_core_init
           LOCAL                   ADDRESS         
           =====                   =======         
           readRandom::?relay      0000046E 
    -------------------------------------------------------------------------
BANK_RELAYS
  Relative segment, address: CODE 00000474 - 00000479 (0x6 bytes), align: 0
  Segment part 616.           Intra module refs:   SW_Init
           LOCAL                   ADDRESS         
           =====                   =======         
           random_core_init::?relay
                                   00000474 
    -------------------------------------------------------------------------
BANK_RELAYS
  Relative segment, address: CODE 0000047A - 0000047F (0x6 bytes), align: 0
  Segment part 618.           Intra module refs:   cmd_0x0D
                                                   energy_scan
           ENTRY                   ADDRESS         REF BY
           =====                   =======         ======
           RI_Measure_POW::?relay
                                   0000047A 
    -------------------------------------------------------------------------
BANK_RELAYS
  Relative segment, address: CODE 00000480 - 00000485 (0x6 bytes), align: 0
  Segment part 620.           Intra module refs:   Segment part 313
           LOCAL                   ADDRESS         
           =====                   =======         
           SW_Init::?relay         00000480 
    -------------------------------------------------------------------------
BANK_RELAYS
  Relative segment, address: CODE 00000486 - 0000048B (0x6 bytes), align: 0
  Segment part 622.           Intra module refs:   Segment part 313
           LOCAL                   ADDRESS         
           =====                   =======         
           Cold_Start::?relay      00000486 
    -------------------------------------------------------------------------
BANK_RELAYS
  Relative segment, address: CODE 0000048C - 00000491 (0x6 bytes), align: 0
  Segment part 624.           Intra module refs:   Segment part 313
           LOCAL                   ADDRESS         
           =====                   =======         
           Hot_Start::?relay       0000048C 
    -------------------------------------------------------------------------
BANK_RELAYS
  Relative segment, address: CODE 00000492 - 00000497 (0x6 bytes), align: 0
  Segment part 626.           Intra module refs:   Segment part 316
           LOCAL                   ADDRESS         
           =====                   =======         
           SW_Init::?relay         00000492 
    -------------------------------------------------------------------------
BANK_RELAYS
  Relative segment, address: CODE 00000498 - 0000049D (0x6 bytes), align: 0
  Segment part 630.           Intra module refs:   Segment part 316
           LOCAL                   ADDRESS         
           =====                   =======         
           Cold_Start::?relay      00000498 
    -------------------------------------------------------------------------
BANK_RELAYS
  Relative segment, address: CODE 0000049E - 000004A3 (0x6 bytes), align: 0
  Segment part 632.           Intra module refs:   mode_1_receive_process
           LOCAL                   ADDRESS         
           =====                   =======         
           validate_sync::?relay   0000049E 
    -------------------------------------------------------------------------
BANK_RELAYS
  Relative segment, address: CODE 000004A4 - 000004A9 (0x6 bytes), align: 0
  Segment part 634.           Intra module refs:   mode_1_receive_process
           LOCAL                   ADDRESS         
           =====                   =======         
           accept_sync_data::?relay
                                   000004A4 
    -------------------------------------------------------------------------
BANK_RELAYS
  Relative segment, address: CODE 000004AA - 000004AF (0x6 bytes), align: 0
  Segment part 636.           Intra module refs:   mode_1_receive_process
           LOCAL                   ADDRESS         
           =====                   =======         
           syncronize_timer::?relay
                                   000004AA 
    -------------------------------------------------------------------------
BANK_RELAYS
  Relative segment, address: CODE 000004B0 - 000004B5 (0x6 bytes), align: 0
  Segment part 638.           Intra module refs:   mode_1_process
           LOCAL                   ADDRESS         
           =====                   =======         
           mode_1_receive_process::?relay
                                   000004B0 
    -------------------------------------------------------------------------
BANK_RELAYS
  Relative segment, address: CODE 000004B6 - 000004BB (0x6 bytes), align: 0
  Segment part 640.           Intra module refs:   mode_1_retransmition_process
           LOCAL                   ADDRESS         
           =====                   =======         
           _throw_dice::?relay     000004B6 
    -------------------------------------------------------------------------
BANK_RELAYS
  Relative segment, address: CODE 000004BC - 000004C1 (0x6 bytes), align: 0
  Segment part 642.           Intra module refs:   mode_1_process
           LOCAL                   ADDRESS         
           =====                   =======         
           mode_1_retransmition_process::?relay
                                   000004BC 
    -------------------------------------------------------------------------
BANK_RELAYS
  Relative segment, address: CODE 000004C2 - 000004C7 (0x6 bytes), align: 0
  Segment part 644.           Intra module refs:   Hot_Start
           LOCAL                   ADDRESS         
           =====                   =======         
           mode_1_process::?relay
                                   000004C2 
    -------------------------------------------------------------------------
BANK_RELAYS
  Relative segment, address: CODE 000004C8 - 000004CD (0x6 bytes), align: 0
  Segment part 646.           Intra module refs:   mode_2_process
           LOCAL                   ADDRESS         
           =====                   =======         
           energy_scan::?relay     000004C8 
    -------------------------------------------------------------------------
BANK_RELAYS
  Relative segment, address: CODE 000004CE - 000004D3 (0x6 bytes), align: 0
  Segment part 648.           Intra module refs:   Hot_Start
           LOCAL                   ADDRESS         
           =====                   =======         
           mode_2_process::?relay
                                   000004CE 
    -------------------------------------------------------------------------
BANK_RELAYS
  Relative segment, address: CODE 000004D4 - 000004D9 (0x6 bytes), align: 0
  Segment part 650.           Intra module refs:   Segment part 316
           LOCAL                   ADDRESS         
           =====                   =======         
           Hot_Start::?relay       000004D4 
    -------------------------------------------------------------------------
BANK_RELAYS
  Relative segment, address: CODE 000004DA - 000004DF (0x6 bytes), align: 0
  Segment part 652.           Intra module refs:   mode_1_receive_process
           LOCAL                   ADDRESS         
           =====                   =======         
           recv_sync::?relay       000004DA 
    -------------------------------------------------------------------------
BANK_RELAYS
  Relative segment, address: CODE 000004E0 - 000004E5 (0x6 bytes), align: 0
  Segment part 654.           Intra module refs:   mode_1_retransmition_process
                                                   mode_2_process
           LOCAL                   ADDRESS         
           =====                   =======         
           send_sync::?relay       000004E0 
    -------------------------------------------------------------------------
BANK_RELAYS
  Relative segment, address: CODE 000004E6 - 000004EB (0x6 bytes), align: 0
  Segment part 660.           Intra module refs:   TM_IRQ
           LOCAL                   ADDRESS         
           =====                   =======         
           __cli::?relay           000004E6 
    -------------------------------------------------------------------------
BANK_RELAYS
  Relative segment, address: CODE 000004EC - 000004F1 (0x6 bytes), align: 0
  Segment part 662.           Intra module refs:   scheduler_rx
                                                   scheduler_tx
           ENTRY                   ADDRESS         REF BY
           =====                   =======         ======
           TM_SetAlarm::?relay     000004EC 
    -------------------------------------------------------------------------
BANK_RELAYS
  Relative segment, address: CODE 000004F2 - 000004F7 (0x6 bytes), align: 0
  Segment part 664.           Intra module refs:   scheduler_rx
                                                   transmite
           ENTRY                   ADDRESS         REF BY
           =====                   =======         ======
           TM_ClrAlarm::?relay     000004F2 
    -------------------------------------------------------------------------
BANK_RELAYS
  Relative segment, address: CODE 000004F8 - 000004FD (0x6 bytes), align: 0
  Segment part 666.           Intra module refs:   _find_next_active
           LOCAL                   ADDRESS         
           =====                   =======         
           _inc_timeslot::?relay   000004F8 
    -------------------------------------------------------------------------
BANK_RELAYS
  Relative segment, address: CODE 000004FE - 00000503 (0x6 bytes), align: 0
  Segment part 668.           Intra module refs:   scheulder_next_alarm
           LOCAL                   ADDRESS         
           =====                   =======         
           _find_next_active::?relay
                                   000004FE 
    -------------------------------------------------------------------------
BANK_RELAYS
  Relative segment, address: CODE 00000504 - 00000509 (0x6 bytes), align: 0
  Segment part 670.           Intra module refs:   TM_IRQ
                                                   init
           LOCAL                   ADDRESS         
           =====                   =======         
           scheulder_next_alarm::?relay
                                   00000504 
    -------------------------------------------------------------------------
BANK_RELAYS
  Relative segment, address: CODE 0000050A - 0000050F (0x6 bytes), align: 0
  Segment part 672.           Intra module refs:   TimerCompareInterrupt
           ENTRY                   ADDRESS         REF BY
           =====                   =======         ======
           TM_IRQ::?relay          0000050A 
    -------------------------------------------------------------------------
BANK_RELAYS
  Relative segment, address: CODE 00000510 - 00000515 (0x6 bytes), align: 0
  Segment part 674.           Intra module refs:   start_mode_1
           LOCAL                   ADDRESS         
           =====                   =======         
           mcu_sleep::?relay       00000510 
    -------------------------------------------------------------------------
BANK_RELAYS
  Relative segment, address: CODE 00000516 - 0000051B (0x6 bytes), align: 0
  Segment part 676.           Intra module refs:   init
           LOCAL                   ADDRESS         
           =====                   =======         
           _clr_all::?relay        00000516 
    -------------------------------------------------------------------------
BANK_RELAYS
  Relative segment, address: CODE 0000051C - 00000521 (0x6 bytes), align: 0
  Segment part 678.           Intra module refs:   start_mode_1
                                                   start_mode_2
           LOCAL                   ADDRESS         
           =====                   =======         
           init::?relay            0000051C 
    -------------------------------------------------------------------------
BANK_RELAYS
  Relative segment, address: CODE 00000522 - 00000527 (0x6 bytes), align: 0
  Segment part 680.           Intra module refs:   Neocore_start
           LOCAL                   ADDRESS         
           =====                   =======         
           start_mode_1::?relay    00000522 
    -------------------------------------------------------------------------
BANK_RELAYS
  Relative segment, address: CODE 00000528 - 0000052D (0x6 bytes), align: 0
  Segment part 682.           Intra module refs:   Neocore_start
           LOCAL                   ADDRESS         
           =====                   =======         
           start_mode_2::?relay    00000528 
    -------------------------------------------------------------------------
BANK_RELAYS
  Relative segment, address: CODE 0000052E - 00000533 (0x6 bytes), align: 0
  Segment part 684.           Intra module refs:   cmd_0x03
           ENTRY                   ADDRESS         REF BY
           =====                   =======         ======
           Neocore_start::?relay   0000052E 
    -------------------------------------------------------------------------
BANK_RELAYS
  Relative segment, address: CODE 00000534 - 00000539 (0x6 bytes), align: 0
  Segment part 686.           Intra module refs:   com_uart_init
           LOCAL                   ADDRESS         
           =====                   =======         
           uart_dma_init::?relay   00000534 
    -------------------------------------------------------------------------
BANK_RELAYS
  Relative segment, address: CODE 0000053A - 0000053F (0x6 bytes), align: 0
  Segment part 688.           Intra module refs:   parse_uart_stream
           ENTRY                   ADDRESS         REF BY
           =====                   =======         ======
           uart_recv_cmd::?relay   0000053A 
    -------------------------------------------------------------------------
BANK_RELAYS
  Relative segment, address: CODE 00000540 - 00000545 (0x6 bytes), align: 0
  Segment part 690.           Intra module refs:   main
           ENTRY                   ADDRESS         REF BY
           =====                   =======         ======
           com_uart_init::?relay   00000540 
    -------------------------------------------------------------------------
BANK_RELAYS
  Relative segment, address: CODE 00000546 - 0000054B (0x6 bytes), align: 0
  Segment part 692.           Intra module refs:   cmd_answer
                                                   stream_write
           ENTRY                   ADDRESS         REF BY
           =====                   =======         ======
           uart_write::?relay      00000546 
    -------------------------------------------------------------------------
BANK_RELAYS
  Relative segment, address: CODE 0000054C - 00000551 (0x6 bytes), align: 0
  Segment part 694.           Intra module refs:   uart_write
           LOCAL                   ADDRESS         
           =====                   =======         
           uart_putchar::?relay    0000054C 
    -------------------------------------------------------------------------
BANK_RELAYS
  Relative segment, address: CODE 00000552 - 00000557 (0x6 bytes), align: 0
  Segment part 698.           Intra module refs:   Segment part 324
           LOCAL                   ADDRESS         
           =====                   =======         
           HW_Init::?relay         00000552 
    -------------------------------------------------------------------------
BANK_RELAYS
  Relative segment, address: CODE 00000558 - 0000055D (0x6 bytes), align: 0
  Segment part 700.           Intra module refs:   DelayCalibrate
                                                   RI_Receive
                                                   RI_Send
                                                   RI_Send_time
                                                   RecvData
                                                   UST_delay
                                                   UST_time_over
           ENTRY                   ADDRESS         REF BY
           =====                   =======         ======
           UST_now::?relay         00000558 
    -------------------------------------------------------------------------
BANK_RELAYS
  Relative segment, address: CODE 0000055E - 00000563 (0x6 bytes), align: 0
  Segment part 702.           Intra module refs:   RecvData
           ENTRY                   ADDRESS         REF BY
           =====                   =======         ======
           UST_time_over::?relay   0000055E 
    -------------------------------------------------------------------------
BANK_RELAYS
  Relative segment, address: CODE 00000564 - 00000569 (0x6 bytes), align: 0
  Segment part 704.           Intra module refs:   RI_Receive
                                                   RI_Send
                                                   RI_Send_time
                                                   UST_time_over
           ENTRY                   ADDRESS         REF BY
           =====                   =======         ======
           UST_interval::?relay    00000564 
    -------------------------------------------------------------------------
BANK_RELAYS
  Relative segment, address: CODE 0000056A - 0000056F (0x6 bytes), align: 0
  Segment part 706.           Intra module refs:   DelayCalibrate
                                                   RI_Measure_POW
                                                   _send_frame
           ENTRY                   ADDRESS         REF BY
           =====                   =======         ======
           UST_delay::?relay       0000056A 
    -------------------------------------------------------------------------
BANK_RELAYS
  Relative segment, address: CODE 00000570 - 00000575 (0x6 bytes), align: 0
  Segment part 708.           Intra module refs:   DelayCalibrate
           ENTRY                   ADDRESS         REF BY
           =====                   =======         ======
           _interval::?relay       00000570 
    -------------------------------------------------------------------------
BANK_RELAYS
  Relative segment, address: CODE 00000576 - 0000057B (0x6 bytes), align: 0
  Segment part 710.           Intra module refs:   HW_Init
           LOCAL                   ADDRESS         
           =====                   =======         
           DelayCalibrate::?relay
                                   00000576 
    -------------------------------------------------------------------------
CODE_C
  Relative segment, address: CODE 0000146A - 0000147A (0x11 bytes), align: 0
  Segment part 48.            Intra module refs:   AM_Callback
                                                   AM_Cold_start
                                                   AM_HW_Init
                                                   AM_Hot_start
                                                   AM_IRQ_Init
                                                   AM_SW_Init
    -------------------------------------------------------------------------
CODE_C
  Relative segment, address: CODE 0000147B - 0000147F (0x5 bytes), align: 0
  Segment part 49.            Intra module refs:   AM_Callback
                                                   AM_Cold_start
                                                   AM_HW_Init
                                                   AM_Hot_start
                                                   AM_IRQ_Init
                                                   AM_SW_Init
    -------------------------------------------------------------------------
CODE_C
  Relative segment, address: CODE 00001480 - 00001482 (0x3 bytes), align: 0
  Segment part 50.            Intra module refs:   AM_Callback
                                                   AM_Cold_start
                                                   AM_HW_Init
                                                   AM_Hot_start
                                                   AM_IRQ_Init
                                                   AM_SW_Init
    -------------------------------------------------------------------------
CODE_C
  Relative segment, address: CODE 00001483 - 0000148E (0xc bytes), align: 0
  Segment part 52.            Intra module refs:   AM_Callback
           LOCAL                   ADDRESS         
           =====                   =======         
           AM_Callback::__FUNCTION__
                                   00001483 
    -------------------------------------------------------------------------
CODE_C
  Relative segment, address: CODE 0000148F - 00001497 (0x9 bytes), align: 0
  Segment part 53.            Intra module refs:   AM_Callback
    -------------------------------------------------------------------------
CODE_C
  Relative segment, address: CODE 00001498 - 000014A5 (0xe bytes), align: 0
  Segment part 54.            Intra module refs:   AM_Cold_start
           LOCAL                   ADDRESS         
           =====                   =======         
           AM_Cold_start::__FUNCTION__
                                   00001498 
    -------------------------------------------------------------------------
CODE_C
  Relative segment, address: CODE 000014A6 - 000014C5 (0x20 bytes), align: 0
  Segment part 55.            Intra module refs:   AM_Cold_start
    -------------------------------------------------------------------------
CODE_C
  Relative segment, address: CODE 000014C6 - 000014D2 (0xd bytes), align: 0
  Segment part 56.            Intra module refs:   AM_Hot_start
           LOCAL                   ADDRESS         
           =====                   =======         
           AM_Hot_start::__FUNCTION__
                                   000014C6 
    -------------------------------------------------------------------------
CODE_C
  Relative segment, address: CODE 000014D3 - 000014F0 (0x1e bytes), align: 0
  Segment part 57.            Intra module refs:   AM_Hot_start
    -------------------------------------------------------------------------
CODE_C
  Relative segment, address: CODE 000014F1 - 000014FB (0xb bytes), align: 0
  Segment part 58.            Intra module refs:   AM_HW_Init
           LOCAL                   ADDRESS         
           =====                   =======         
           AM_HW_Init::__FUNCTION__
                                   000014F1 
    -------------------------------------------------------------------------
CODE_C
  Relative segment, address: CODE 000014FC - 00001516 (0x1b bytes), align: 0
  Segment part 59.            Intra module refs:   AM_HW_Init
    -------------------------------------------------------------------------
CODE_C
  Relative segment, address: CODE 00001517 - 00001521 (0xb bytes), align: 0
  Segment part 60.            Intra module refs:   AM_SW_Init
           LOCAL                   ADDRESS         
           =====                   =======         
           AM_SW_Init::__FUNCTION__
                                   00001517 
    -------------------------------------------------------------------------
CODE_C
  Relative segment, address: CODE 00001522 - 0000153C (0x1b bytes), align: 0
  Segment part 61.            Intra module refs:   AM_SW_Init
    -------------------------------------------------------------------------
CODE_C
  Relative segment, address: CODE 0000153D - 00001548 (0xc bytes), align: 0
  Segment part 62.            Intra module refs:   AM_IRQ_Init
           LOCAL                   ADDRESS         
           =====                   =======         
           AM_IRQ_Init::__FUNCTION__
                                   0000153D 
    -------------------------------------------------------------------------
CODE_C
  Relative segment, address: CODE 00001549 - 00001565 (0x1d bytes), align: 0
  Segment part 63.            Intra module refs:   AM_IRQ_Init
    -------------------------------------------------------------------------
CODE_C
  Relative segment, address: CODE 00001566 - 00001571 (0xc bytes), align: 0
  Segment part 64.            Intra module refs:   AT_set_time
           LOCAL                   ADDRESS         
           =====                   =======         
           AT_set_time::__FUNCTION__
                                   00001566 
    -------------------------------------------------------------------------
CODE_C
  Relative segment, address: CODE 00001572 - 0000157F (0xe bytes), align: 0
  Segment part 65.            Intra module refs:   AT_set_alarm
                                                   AT_set_time
                                                   AT_wait
    -------------------------------------------------------------------------
CODE_C
  Relative segment, address: CODE 00001580 - 00001584 (0x5 bytes), align: 0
  Segment part 66.            Intra module refs:   AT_set_alarm
                                                   AT_set_time
                                                   AT_wait
    -------------------------------------------------------------------------
CODE_C
  Relative segment, address: CODE 00001585 - 00001587 (0x3 bytes), align: 0
  Segment part 67.            Intra module refs:   AT_set_alarm
                                                   AT_set_time
                                                   AT_wait
    -------------------------------------------------------------------------
CODE_C
  Relative segment, address: CODE 00001588 - 0000159A (0x13 bytes), align: 0
  Segment part 68.            Intra module refs:   AT_set_time
                                                   AT_wait
    -------------------------------------------------------------------------
CODE_C
  Relative segment, address: CODE 0000159B - 000015A2 (0x8 bytes), align: 0
  Segment part 69.            Intra module refs:   AT_wait
           LOCAL                   ADDRESS         
           =====                   =======         
           AT_wait::__FUNCTION__   0000159B 
    -------------------------------------------------------------------------
CODE_C
  Relative segment, address: CODE 000015A3 - 000015AF (0xd bytes), align: 0
  Segment part 70.            Intra module refs:   AT_set_alarm
           LOCAL                   ADDRESS         
           =====                   =======         
           AT_set_alarm::__FUNCTION__
                                   000015A3 
    -------------------------------------------------------------------------
CODE_C
  Relative segment, address: CODE 000015B0 - 000015C3 (0x14 bytes), align: 0
  Segment part 71.            Intra module refs:   AT_set_alarm
    -------------------------------------------------------------------------
CODE_C
  Relative segment, address: CODE 000015C4 - 000015CC (0x9 bytes), align: 0
  Segment part 72.            Intra module refs:   cmd_0x00
           LOCAL                   ADDRESS         
           =====                   =======         
           cmd_0x00::__FUNCTION__
                                   000015C4 
    -------------------------------------------------------------------------
CODE_C
  Relative segment, address: CODE 000015CD - 000015D7 (0xb bytes), align: 0
  Segment part 73.            Intra module refs:   cmd_0x00
    -------------------------------------------------------------------------
CODE_C
  Relative segment, address: CODE 000015D8 - 000015DC (0x5 bytes), align: 0
  Segment part 74.            Intra module refs:   cmd_0x00
    -------------------------------------------------------------------------
CODE_C
  Relative segment, address: CODE 000015DD - 000015DF (0x3 bytes), align: 0
  Segment part 75.            Intra module refs:   cmd_0x00
    -------------------------------------------------------------------------
CODE_C
  Relative segment, address: CODE 000015E0 - 000015F1 (0x12 bytes), align: 0
  Segment part 76.            Intra module refs:   cmd_0x00
    -------------------------------------------------------------------------
CODE_C
  Relative segment, address: CODE 000015F2 - 000015F4 (0x3 bytes), align: 0
  Segment part 77.            Intra module refs:   cmd_0x00
    -------------------------------------------------------------------------
CODE_C
  Relative segment, address: CODE 000015F5 - 00001609 (0x15 bytes), align: 0
  Segment part 78.            Intra module refs:   cmd_0x00
    -------------------------------------------------------------------------
CODE_C
  Relative segment, address: CODE 0000160A - 00001612 (0x9 bytes), align: 0
  Segment part 79.            Intra module refs:   cmd_0x01
           LOCAL                   ADDRESS         
           =====                   =======         
           cmd_0x01::__FUNCTION__
                                   0000160A 
    -------------------------------------------------------------------------
CODE_C
  Relative segment, address: CODE 00001613 - 0000161D (0xb bytes), align: 0
  Segment part 80.            Intra module refs:   cmd_0x01
    -------------------------------------------------------------------------
CODE_C
  Relative segment, address: CODE 0000161E - 00001622 (0x5 bytes), align: 0
  Segment part 81.            Intra module refs:   cmd_0x01
    -------------------------------------------------------------------------
CODE_C
  Relative segment, address: CODE 00001623 - 00001625 (0x3 bytes), align: 0
  Segment part 82.            Intra module refs:   cmd_0x01
    -------------------------------------------------------------------------
CODE_C
  Relative segment, address: CODE 00001626 - 00001639 (0x14 bytes), align: 0
  Segment part 83.            Intra module refs:   cmd_0x01
    -------------------------------------------------------------------------
CODE_C
  Relative segment, address: CODE 0000163A - 0000163C (0x3 bytes), align: 0
  Segment part 84.            Intra module refs:   cmd_0x01
    -------------------------------------------------------------------------
CODE_C
  Relative segment, address: CODE 0000163D - 00001645 (0x9 bytes), align: 0
  Segment part 85.            Intra module refs:   cmd_0x03
           LOCAL                   ADDRESS         
           =====                   =======         
           cmd_0x03::__FUNCTION__
                                   0000163D 
    -------------------------------------------------------------------------
CODE_C
  Relative segment, address: CODE 00001646 - 00001650 (0xb bytes), align: 0
  Segment part 86.            Intra module refs:   cmd_0x03
    -------------------------------------------------------------------------
CODE_C
  Relative segment, address: CODE 00001651 - 00001655 (0x5 bytes), align: 0
  Segment part 87.            Intra module refs:   cmd_0x03
    -------------------------------------------------------------------------
CODE_C
  Relative segment, address: CODE 00001656 - 00001658 (0x3 bytes), align: 0
  Segment part 88.            Intra module refs:   cmd_0x03
    -------------------------------------------------------------------------
CODE_C
  Relative segment, address: CODE 00001659 - 00001670 (0x18 bytes), align: 0
  Segment part 89.            Intra module refs:   cmd_0x03
    -------------------------------------------------------------------------
CODE_C
  Relative segment, address: CODE 00001671 - 00001673 (0x3 bytes), align: 0
  Segment part 90.            Intra module refs:   cmd_0x03
    -------------------------------------------------------------------------
CODE_C
  Relative segment, address: CODE 00001674 - 0000168A (0x17 bytes), align: 0
  Segment part 91.            Intra module refs:   cmd_0x03
    -------------------------------------------------------------------------
CODE_C
  Relative segment, address: CODE 0000168B - 00001693 (0x9 bytes), align: 0
  Segment part 92.            Intra module refs:   cmd_0x04
           LOCAL                   ADDRESS         
           =====                   =======         
           cmd_0x04::__FUNCTION__
                                   0000168B 
    -------------------------------------------------------------------------
CODE_C
  Relative segment, address: CODE 00001694 - 0000169E (0xb bytes), align: 0
  Segment part 93.            Intra module refs:   cmd_0x04
    -------------------------------------------------------------------------
CODE_C
  Relative segment, address: CODE 0000169F - 000016A3 (0x5 bytes), align: 0
  Segment part 94.            Intra module refs:   cmd_0x04
    -------------------------------------------------------------------------
CODE_C
  Relative segment, address: CODE 000016A4 - 000016A6 (0x3 bytes), align: 0
  Segment part 95.            Intra module refs:   cmd_0x04
    -------------------------------------------------------------------------
CODE_C
  Relative segment, address: CODE 000016A7 - 000016BA (0x14 bytes), align: 0
  Segment part 96.            Intra module refs:   cmd_0x04
    -------------------------------------------------------------------------
CODE_C
  Relative segment, address: CODE 000016BB - 000016BD (0x3 bytes), align: 0
  Segment part 97.            Intra module refs:   cmd_0x04
    -------------------------------------------------------------------------
CODE_C
  Relative segment, address: CODE 000016BE - 000016C6 (0x9 bytes), align: 0
  Segment part 98.            Intra module refs:   cmd_0x05
           LOCAL                   ADDRESS         
           =====                   =======         
           cmd_0x05::__FUNCTION__
                                   000016BE 
    -------------------------------------------------------------------------
CODE_C
  Relative segment, address: CODE 000016C7 - 000016D1 (0xb bytes), align: 0
  Segment part 99.            Intra module refs:   cmd_0x05
    -------------------------------------------------------------------------
CODE_C
  Relative segment, address: CODE 000016D2 - 000016D6 (0x5 bytes), align: 0
  Segment part 100.           Intra module refs:   cmd_0x05
    -------------------------------------------------------------------------
CODE_C
  Relative segment, address: CODE 000016D7 - 000016D9 (0x3 bytes), align: 0
  Segment part 101.           Intra module refs:   cmd_0x05
    -------------------------------------------------------------------------
CODE_C
  Relative segment, address: CODE 000016DA - 000016EE (0x15 bytes), align: 0
  Segment part 102.           Intra module refs:   cmd_0x05
    -------------------------------------------------------------------------
CODE_C
  Relative segment, address: CODE 000016EF - 000016F1 (0x3 bytes), align: 0
  Segment part 103.           Intra module refs:   cmd_0x05
    -------------------------------------------------------------------------
CODE_C
  Relative segment, address: CODE 000016F2 - 000016FA (0x9 bytes), align: 0
  Segment part 104.           Intra module refs:   cmd_0x06
           LOCAL                   ADDRESS         
           =====                   =======         
           cmd_0x06::__FUNCTION__
                                   000016F2 
    -------------------------------------------------------------------------
CODE_C
  Relative segment, address: CODE 000016FB - 00001705 (0xb bytes), align: 0
  Segment part 105.           Intra module refs:   cmd_0x06
    -------------------------------------------------------------------------
CODE_C
  Relative segment, address: CODE 00001706 - 0000170A (0x5 bytes), align: 0
  Segment part 106.           Intra module refs:   cmd_0x06
    -------------------------------------------------------------------------
CODE_C
  Relative segment, address: CODE 0000170B - 0000170D (0x3 bytes), align: 0
  Segment part 107.           Intra module refs:   cmd_0x06
    -------------------------------------------------------------------------
CODE_C
  Relative segment, address: CODE 0000170E - 00001721 (0x14 bytes), align: 0
  Segment part 108.           Intra module refs:   cmd_0x06
    -------------------------------------------------------------------------
CODE_C
  Relative segment, address: CODE 00001722 - 00001724 (0x3 bytes), align: 0
  Segment part 109.           Intra module refs:   cmd_0x06
    -------------------------------------------------------------------------
CODE_C
  Relative segment, address: CODE 00001725 - 0000172D (0x9 bytes), align: 0
  Segment part 110.           Intra module refs:   cmd_0x07
           LOCAL                   ADDRESS         
           =====                   =======         
           cmd_0x07::__FUNCTION__
                                   00001725 
    -------------------------------------------------------------------------
CODE_C
  Relative segment, address: CODE 0000172E - 00001738 (0xb bytes), align: 0
  Segment part 111.           Intra module refs:   cmd_0x07
    -------------------------------------------------------------------------
CODE_C
  Relative segment, address: CODE 00001739 - 0000173D (0x5 bytes), align: 0
  Segment part 112.           Intra module refs:   cmd_0x07
    -------------------------------------------------------------------------
CODE_C
  Relative segment, address: CODE 0000173E - 00001740 (0x3 bytes), align: 0
  Segment part 113.           Intra module refs:   cmd_0x07
    -------------------------------------------------------------------------
CODE_C
  Relative segment, address: CODE 00001741 - 00001754 (0x14 bytes), align: 0
  Segment part 114.           Intra module refs:   cmd_0x07
    -------------------------------------------------------------------------
CODE_C
  Relative segment, address: CODE 00001755 - 00001757 (0x3 bytes), align: 0
  Segment part 115.           Intra module refs:   cmd_0x07
    -------------------------------------------------------------------------
CODE_C
  Relative segment, address: CODE 00001758 - 00001760 (0x9 bytes), align: 0
  Segment part 116.           Intra module refs:   cmd_0x08
           LOCAL                   ADDRESS         
           =====                   =======         
           cmd_0x08::__FUNCTION__
                                   00001758 
    -------------------------------------------------------------------------
CODE_C
  Relative segment, address: CODE 00001761 - 0000176B (0xb bytes), align: 0
  Segment part 117.           Intra module refs:   cmd_0x08
    -------------------------------------------------------------------------
CODE_C
  Relative segment, address: CODE 0000176C - 00001770 (0x5 bytes), align: 0
  Segment part 118.           Intra module refs:   cmd_0x08
    -------------------------------------------------------------------------
CODE_C
  Relative segment, address: CODE 00001771 - 00001773 (0x3 bytes), align: 0
  Segment part 119.           Intra module refs:   cmd_0x08
    -------------------------------------------------------------------------
CODE_C
  Relative segment, address: CODE 00001774 - 0000178B (0x18 bytes), align: 0
  Segment part 120.           Intra module refs:   cmd_0x08
    -------------------------------------------------------------------------
CODE_C
  Relative segment, address: CODE 0000178C - 0000178E (0x3 bytes), align: 0
  Segment part 121.           Intra module refs:   cmd_0x08
    -------------------------------------------------------------------------
CODE_C
  Relative segment, address: CODE 0000178F - 00001797 (0x9 bytes), align: 0
  Segment part 122.           Intra module refs:   cmd_0x0B
           LOCAL                   ADDRESS         
           =====                   =======         
           cmd_0x0B::__FUNCTION__
                                   0000178F 
    -------------------------------------------------------------------------
CODE_C
  Relative segment, address: CODE 00001798 - 000017A2 (0xb bytes), align: 0
  Segment part 123.           Intra module refs:   cmd_0x0B
    -------------------------------------------------------------------------
CODE_C
  Relative segment, address: CODE 000017A3 - 000017A7 (0x5 bytes), align: 0
  Segment part 124.           Intra module refs:   cmd_0x0B
    -------------------------------------------------------------------------
CODE_C
  Relative segment, address: CODE 000017A8 - 000017AA (0x3 bytes), align: 0
  Segment part 125.           Intra module refs:   cmd_0x0B
    -------------------------------------------------------------------------
CODE_C
  Relative segment, address: CODE 000017AB - 000017B3 (0x9 bytes), align: 0
  Segment part 126.           Intra module refs:   cmd_0x0B
    -------------------------------------------------------------------------
CODE_C
  Relative segment, address: CODE 000017B4 - 000017CA (0x17 bytes), align: 0
  Segment part 127.           Intra module refs:   cmd_0x0B
    -------------------------------------------------------------------------
CODE_C
  Relative segment, address: CODE 000017CB - 000017CD (0x3 bytes), align: 0
  Segment part 128.           Intra module refs:   cmd_0x0B
    -------------------------------------------------------------------------
CODE_C
  Relative segment, address: CODE 000017CE - 000017E8 (0x1b bytes), align: 0
  Segment part 129.           Intra module refs:   cmd_0x0B
    -------------------------------------------------------------------------
CODE_C
  Relative segment, address: CODE 000017E9 - 000017F1 (0x9 bytes), align: 0
  Segment part 130.           Intra module refs:   cmd_0x0C
           LOCAL                   ADDRESS         
           =====                   =======         
           cmd_0x0C::__FUNCTION__
                                   000017E9 
    -------------------------------------------------------------------------
CODE_C
  Relative segment, address: CODE 000017F2 - 000017FC (0xb bytes), align: 0
  Segment part 131.           Intra module refs:   cmd_0x0C
    -------------------------------------------------------------------------
CODE_C
  Relative segment, address: CODE 000017FD - 00001801 (0x5 bytes), align: 0
  Segment part 132.           Intra module refs:   cmd_0x0C
    -------------------------------------------------------------------------
CODE_C
  Relative segment, address: CODE 00001802 - 00001804 (0x3 bytes), align: 0
  Segment part 133.           Intra module refs:   cmd_0x0C
    -------------------------------------------------------------------------
CODE_C
  Relative segment, address: CODE 00001805 - 0000181E (0x1a bytes), align: 0
  Segment part 134.           Intra module refs:   cmd_0x0C
    -------------------------------------------------------------------------
CODE_C
  Relative segment, address: CODE 0000181F - 00001821 (0x3 bytes), align: 0
  Segment part 135.           Intra module refs:   cmd_0x0C
    -------------------------------------------------------------------------
CODE_C
  Relative segment, address: CODE 00001822 - 0000182A (0x9 bytes), align: 0
  Segment part 136.           Intra module refs:   cmd_0x0D
           LOCAL                   ADDRESS         
           =====                   =======         
           cmd_0x0D::__FUNCTION__
                                   00001822 
    -------------------------------------------------------------------------
CODE_C
  Relative segment, address: CODE 0000182B - 00001835 (0xb bytes), align: 0
  Segment part 137.           Intra module refs:   cmd_0x0D
    -------------------------------------------------------------------------
CODE_C
  Relative segment, address: CODE 00001836 - 0000183A (0x5 bytes), align: 0
  Segment part 138.           Intra module refs:   cmd_0x0D
    -------------------------------------------------------------------------
CODE_C
  Relative segment, address: CODE 0000183B - 0000183D (0x3 bytes), align: 0
  Segment part 139.           Intra module refs:   cmd_0x0D
    -------------------------------------------------------------------------
CODE_C
  Relative segment, address: CODE 0000183E - 00001851 (0x14 bytes), align: 0
  Segment part 140.           Intra module refs:   cmd_0x0D
    -------------------------------------------------------------------------
CODE_C
  Relative segment, address: CODE 00001852 - 00001854 (0x3 bytes), align: 0
  Segment part 141.           Intra module refs:   cmd_0x0D
    -------------------------------------------------------------------------
CODE_C
  Relative segment, address: CODE 00001855 - 0000185D (0x9 bytes), align: 0
  Segment part 142.           Intra module refs:   cmd_0x0E
           LOCAL                   ADDRESS         
           =====                   =======         
           cmd_0x0E::__FUNCTION__
                                   00001855 
    -------------------------------------------------------------------------
CODE_C
  Relative segment, address: CODE 0000185E - 00001868 (0xb bytes), align: 0
  Segment part 143.           Intra module refs:   cmd_0x0E
    -------------------------------------------------------------------------
CODE_C
  Relative segment, address: CODE 00001869 - 0000186D (0x5 bytes), align: 0
  Segment part 144.           Intra module refs:   cmd_0x0E
    -------------------------------------------------------------------------
CODE_C
  Relative segment, address: CODE 0000186E - 00001870 (0x3 bytes), align: 0
  Segment part 145.           Intra module refs:   cmd_0x0E
    -------------------------------------------------------------------------
CODE_C
  Relative segment, address: CODE 00001871 - 00001886 (0x16 bytes), align: 0
  Segment part 146.           Intra module refs:   cmd_0x0E
    -------------------------------------------------------------------------
CODE_C
  Relative segment, address: CODE 00001887 - 00001889 (0x3 bytes), align: 0
  Segment part 147.           Intra module refs:   cmd_0x0E
    -------------------------------------------------------------------------
CODE_C
  Relative segment, address: CODE 0000188A - 00001892 (0x9 bytes), align: 0
  Segment part 148.           Intra module refs:   cmd_0x0F
           LOCAL                   ADDRESS         
           =====                   =======         
           cmd_0x0F::__FUNCTION__
                                   0000188A 
    -------------------------------------------------------------------------
CODE_C
  Relative segment, address: CODE 00001893 - 0000189D (0xb bytes), align: 0
  Segment part 149.           Intra module refs:   cmd_0x0F
    -------------------------------------------------------------------------
CODE_C
  Relative segment, address: CODE 0000189E - 000018A2 (0x5 bytes), align: 0
  Segment part 150.           Intra module refs:   cmd_0x0F
    -------------------------------------------------------------------------
CODE_C
  Relative segment, address: CODE 000018A3 - 000018A5 (0x3 bytes), align: 0
  Segment part 151.           Intra module refs:   cmd_0x0F
    -------------------------------------------------------------------------
CODE_C
  Relative segment, address: CODE 000018A6 - 000018BB (0x16 bytes), align: 0
  Segment part 152.           Intra module refs:   cmd_0x0F
    -------------------------------------------------------------------------
CODE_C
  Relative segment, address: CODE 000018BC - 000018BE (0x3 bytes), align: 0
  Segment part 153.           Intra module refs:   cmd_0x0F
    -------------------------------------------------------------------------
CODE_C
  Relative segment, address: CODE 000018BF - 000018C7 (0x9 bytes), align: 0
  Segment part 154.           Intra module refs:   cmd_0x10
           LOCAL                   ADDRESS         
           =====                   =======         
           cmd_0x10::__FUNCTION__
                                   000018BF 
    -------------------------------------------------------------------------
CODE_C
  Relative segment, address: CODE 000018C8 - 000018D2 (0xb bytes), align: 0
  Segment part 155.           Intra module refs:   cmd_0x10
    -------------------------------------------------------------------------
CODE_C
  Relative segment, address: CODE 000018D3 - 000018D7 (0x5 bytes), align: 0
  Segment part 156.           Intra module refs:   cmd_0x10
    -------------------------------------------------------------------------
CODE_C
  Relative segment, address: CODE 000018D8 - 000018DA (0x3 bytes), align: 0
  Segment part 157.           Intra module refs:   cmd_0x10
    -------------------------------------------------------------------------
CODE_C
  Relative segment, address: CODE 000018DB - 000018F1 (0x17 bytes), align: 0
  Segment part 158.           Intra module refs:   cmd_0x10
    -------------------------------------------------------------------------
CODE_C
  Relative segment, address: CODE 000018F2 - 000018F4 (0x3 bytes), align: 0
  Segment part 159.           Intra module refs:   cmd_0x10
    -------------------------------------------------------------------------
CODE_C
  Relative segment, address: CODE 000018F5 - 000018FD (0x9 bytes), align: 0
  Segment part 160.           Intra module refs:   cmd_0x11
           LOCAL                   ADDRESS         
           =====                   =======         
           cmd_0x11::__FUNCTION__
                                   000018F5 
    -------------------------------------------------------------------------
CODE_C
  Relative segment, address: CODE 000018FE - 00001908 (0xb bytes), align: 0
  Segment part 161.           Intra module refs:   cmd_0x11
    -------------------------------------------------------------------------
CODE_C
  Relative segment, address: CODE 00001909 - 0000190D (0x5 bytes), align: 0
  Segment part 162.           Intra module refs:   cmd_0x11
    -------------------------------------------------------------------------
CODE_C
  Relative segment, address: CODE 0000190E - 00001910 (0x3 bytes), align: 0
  Segment part 163.           Intra module refs:   cmd_0x11
    -------------------------------------------------------------------------
CODE_C
  Relative segment, address: CODE 00001911 - 0000192B (0x1b bytes), align: 0
  Segment part 164.           Intra module refs:   cmd_0x11
    -------------------------------------------------------------------------
CODE_C
  Relative segment, address: CODE 0000192C - 0000192E (0x3 bytes), align: 0
  Segment part 165.           Intra module refs:   cmd_0x11
    -------------------------------------------------------------------------
CODE_C
  Relative segment, address: CODE 0000192F - 0000193B (0xd bytes), align: 0
  Segment part 166.           Intra module refs:   stream_write
           LOCAL                   ADDRESS         
           =====                   =======         
           stream_write::__FUNCTION__
                                   0000192F 
    -------------------------------------------------------------------------
CODE_C
  Relative segment, address: CODE 0000193C - 00001948 (0xd bytes), align: 0
  Segment part 167.           Intra module refs:   stream_write
    -------------------------------------------------------------------------
CODE_C
  Relative segment, address: CODE 00001949 - 0000194D (0x5 bytes), align: 0
  Segment part 168.           Intra module refs:   stream_write
    -------------------------------------------------------------------------
CODE_C
  Relative segment, address: CODE 0000194E - 00001950 (0x3 bytes), align: 0
  Segment part 169.           Intra module refs:   stream_write
    -------------------------------------------------------------------------
CODE_C
  Relative segment, address: CODE 00001951 - 00001967 (0x17 bytes), align: 0
  Segment part 170.           Intra module refs:   stream_write
    -------------------------------------------------------------------------
CODE_C
  Relative segment, address: CODE 00001968 - 00001977 (0x10 bytes), align: 0
  Segment part 171.           Intra module refs:   HW_Init
    -------------------------------------------------------------------------
CODE_C
  Relative segment, address: CODE 00001978 - 00001987 (0x10 bytes), align: 0
  Segment part 172.           Intra module refs:   HW_Init
    -------------------------------------------------------------------------
CODE_C
  Relative segment, address: CODE 00001988 - 00001997 (0x10 bytes), align: 0
  Segment part 173.           Intra module refs:   HW_Init
    -------------------------------------------------------------------------
CODE_C
  Relative segment, address: CODE 00001998 - 000019A7 (0x10 bytes), align: 0
  Segment part 174.           Intra module refs:   HW_Init
    -------------------------------------------------------------------------
CODE_C
  Relative segment, address: CODE 000019A8 - 000019B5 (0xe bytes), align: 0
  Segment part 175.           Intra module refs:   LLC_open_slot
           LOCAL                   ADDRESS         
           =====                   =======         
           LLC_open_slot::__FUNCTION__
                                   000019A8 
    -------------------------------------------------------------------------
CODE_C
  Relative segment, address: CODE 000019B6 - 000019BB (0x6 bytes), align: 0
  Segment part 176.           Intra module refs:   LLC_add_tx_frame
                                                   LLC_close_slot
                                                   LLC_open_slot
                                                   scheduler_rx
                                                   scheduler_tx
                                                   transmite
    -------------------------------------------------------------------------
CODE_C
  Relative segment, address: CODE 000019BC - 000019C0 (0x5 bytes), align: 0
  Segment part 177.           Intra module refs:   LLC_add_tx_frame
                                                   LLC_close_slot
                                                   LLC_open_slot
                                                   scheduler_rx
                                                   scheduler_tx
                                                   transmite
    -------------------------------------------------------------------------
CODE_C
  Relative segment, address: CODE 000019C1 - 000019C3 (0x3 bytes), align: 0
  Segment part 178.           Intra module refs:   LLC_add_tx_frame
                                                   LLC_close_slot
                                                   LLC_open_slot
                                                   scheduler_rx
                                                   scheduler_tx
                                                   transmite
    -------------------------------------------------------------------------
CODE_C
  Relative segment, address: CODE 000019C4 - 000019DD (0x1a bytes), align: 0
  Segment part 179.           Intra module refs:   LLC_close_slot
                                                   LLC_open_slot
    -------------------------------------------------------------------------
CODE_C
  Relative segment, address: CODE 000019DE - 000019FA (0x1d bytes), align: 0
  Segment part 180.           Intra module refs:   LLC_open_slot
    -------------------------------------------------------------------------
CODE_C
  Relative segment, address: CODE 000019FB - 00001A09 (0xf bytes), align: 0
  Segment part 181.           Intra module refs:   LLC_close_slot
           LOCAL                   ADDRESS         
           =====                   =======         
           LLC_close_slot::__FUNCTION__
                                   000019FB 
    -------------------------------------------------------------------------
CODE_C
  Relative segment, address: CODE 00001A0A - 00001A1A (0x11 bytes), align: 0
  Segment part 182.           Intra module refs:   LLC_add_tx_frame
           LOCAL                   ADDRESS         
           =====                   =======         
           LLC_add_tx_frame::__FUNCTION__
                                   00001A0A 
    -------------------------------------------------------------------------
CODE_C
  Relative segment, address: CODE 00001A1B - 00001A20 (0x6 bytes), align: 0
  Segment part 183.           Intra module refs:   LLC_add_tx_frame
    -------------------------------------------------------------------------
CODE_C
  Relative segment, address: CODE 00001A21 - 00001A2D (0xd bytes), align: 0
  Segment part 184.           Intra module refs:   scheduler_tx
           LOCAL                   ADDRESS         
           =====                   =======         
           scheduler_tx::__FUNCTION__
                                   00001A21 
    -------------------------------------------------------------------------
CODE_C
  Relative segment, address: CODE 00001A2E - 00001A44 (0x17 bytes), align: 0
  Segment part 185.           Intra module refs:   scheduler_tx
    -------------------------------------------------------------------------
CODE_C
  Relative segment, address: CODE 00001A45 - 00001A51 (0xd bytes), align: 0
  Segment part 186.           Intra module refs:   scheduler_rx
           LOCAL                   ADDRESS         
           =====                   =======         
           scheduler_rx::__FUNCTION__
                                   00001A45 
    -------------------------------------------------------------------------
CODE_C
  Relative segment, address: CODE 00001A52 - 00001A68 (0x17 bytes), align: 0
  Segment part 187.           Intra module refs:   scheduler_rx
    -------------------------------------------------------------------------
CODE_C
  Relative segment, address: CODE 00001A69 - 00001A72 (0xa bytes), align: 0
  Segment part 188.           Intra module refs:   transmite
           LOCAL                   ADDRESS         
           =====                   =======         
           transmite::__FUNCTION__
                                   00001A69 
    -------------------------------------------------------------------------
CODE_C
  Relative segment, address: CODE 00001A73 - 00001A78 (0x6 bytes), align: 0
  Segment part 189.           Intra module refs:   transmite
    -------------------------------------------------------------------------
CODE_C
  Relative segment, address: CODE 00001A79 - 00001A85 (0xd bytes), align: 0
  Segment part 190.           Intra module refs:   transmite
    -------------------------------------------------------------------------
CODE_C
  Relative segment, address: CODE 00001A86 - 00001A88 (0x3 bytes), align: 0
  Segment part 191.           Intra module refs:   transmite
    -------------------------------------------------------------------------
CODE_C
  Relative segment, address: CODE 00001A89 - 00001A94 (0xc bytes), align: 0
  Segment part 192.           Intra module refs:   transmite
    -------------------------------------------------------------------------
CODE_C
  Relative segment, address: CODE 00001A95 - 00001AA4 (0x10 bytes), align: 0
  Segment part 193.           Intra module refs:   transmite
    -------------------------------------------------------------------------
CODE_C
  Relative segment, address: CODE 00001AA5 - 00001AB0 (0xc bytes), align: 0
  Segment part 194.           Intra module refs:   _recv_frame
           LOCAL                   ADDRESS         
           =====                   =======         
           _recv_frame::__FUNCTION__
                                   00001AA5 
    -------------------------------------------------------------------------
CODE_C
  Relative segment, address: CODE 00001AB1 - 00001AB6 (0x6 bytes), align: 0
  Segment part 195.           Intra module refs:   MAC_Receive
                                                   _recv_frame
                                                   _send_frame
    -------------------------------------------------------------------------
CODE_C
  Relative segment, address: CODE 00001AB7 - 00001ABB (0x5 bytes), align: 0
  Segment part 196.           Intra module refs:   MAC_Receive
                                                   _recv_frame
                                                   _send_frame
    -------------------------------------------------------------------------
CODE_C
  Relative segment, address: CODE 00001ABC - 00001AC9 (0xe bytes), align: 0
  Segment part 197.           Intra module refs:   _recv_frame
                                                   _send_frame
    -------------------------------------------------------------------------
CODE_C
  Relative segment, address: CODE 00001ACA - 00001AD5 (0xc bytes), align: 0
  Segment part 198.           Intra module refs:   MAC_Receive
           LOCAL                   ADDRESS         
           =====                   =======         
           MAC_Receive::__FUNCTION__
                                   00001ACA 
    -------------------------------------------------------------------------
CODE_C
  Relative segment, address: CODE 00001AD6 - 00001AD8 (0x3 bytes), align: 0
  Segment part 199.           Intra module refs:   MAC_Receive
    -------------------------------------------------------------------------
CODE_C
  Relative segment, address: CODE 00001AD9 - 00001ADD (0x5 bytes), align: 0
  Segment part 200.           Intra module refs:   MAC_Receive
    -------------------------------------------------------------------------
CODE_C
  Relative segment, address: CODE 00001ADE - 00001AE0 (0x3 bytes), align: 0
  Segment part 201.           Intra module refs:   MAC_Receive
    -------------------------------------------------------------------------
CODE_C
  Relative segment, address: CODE 00001AE1 - 00001AEC (0xc bytes), align: 0
  Segment part 202.           Intra module refs:   _send_frame
           LOCAL                   ADDRESS         
           =====                   =======         
           _send_frame::__FUNCTION__
                                   00001AE1 
    -------------------------------------------------------------------------
CODE_C
  Relative segment, address: CODE 00001AED - 00001AF5 (0x9 bytes), align: 0
  Segment part 203.           Intra module refs:   pre_init
           LOCAL                   ADDRESS         
           =====                   =======         
           pre_init::__FUNCTION__
                                   00001AED 
    -------------------------------------------------------------------------
CODE_C
  Relative segment, address: CODE 00001AF6 - 00001AFC (0x7 bytes), align: 0
  Segment part 204.           Intra module refs:   main
                                                   pre_init
    -------------------------------------------------------------------------
CODE_C
  Relative segment, address: CODE 00001AFD - 00001B01 (0x5 bytes), align: 0
  Segment part 205.           Intra module refs:   main
                                                   pre_init
    -------------------------------------------------------------------------
CODE_C
  Relative segment, address: CODE 00001B02 - 00001B04 (0x3 bytes), align: 0
  Segment part 206.           Intra module refs:   main
                                                   pre_init
    -------------------------------------------------------------------------
CODE_C
  Relative segment, address: CODE 00001B05 - 00001B14 (0x10 bytes), align: 0
  Segment part 207.           Intra module refs:   pre_init
    -------------------------------------------------------------------------
CODE_C
  Relative segment, address: CODE 00001B15 - 00001B17 (0x3 bytes), align: 0
  Segment part 208.           Intra module refs:   main
                                                   pre_init
    -------------------------------------------------------------------------
CODE_C
  Relative segment, address: CODE 00001B18 - 00001B1C (0x5 bytes), align: 0
  Segment part 209.           Intra module refs:   main
           LOCAL                   ADDRESS         
           =====                   =======         
           main::__FUNCTION__      00001B18 
    -------------------------------------------------------------------------
CODE_C
  Relative segment, address: CODE 00001B1D - 00001B25 (0x9 bytes), align: 0
  Segment part 210.           Intra module refs:   main
    -------------------------------------------------------------------------
CODE_C
  Relative segment, address: CODE 00001B26 - 00001B2D (0x8 bytes), align: 0
  Segment part 217.           Intra module refs:   setFreq
           LOCAL                   ADDRESS         
           =====                   =======         
           setFreq::__FUNCTION__   00001B26 
    -------------------------------------------------------------------------
CODE_C
  Relative segment, address: CODE 00001B2E - 00001B35 (0x8 bytes), align: 0
  Segment part 218.           Intra module refs:   RI_Receive
                                                   RI_Send
                                                   RI_Send_time
                                                   setFreq
    -------------------------------------------------------------------------
CODE_C
  Relative segment, address: CODE 00001B36 - 00001B3A (0x5 bytes), align: 0
  Segment part 219.           Intra module refs:   RI_Receive
                                                   RI_Send
                                                   RI_Send_time
                                                   setFreq
    -------------------------------------------------------------------------
CODE_C
  Relative segment, address: CODE 00001B3B - 00001B3D (0x3 bytes), align: 0
  Segment part 220.           Intra module refs:   RI_Receive
                                                   RI_Send
                                                   RI_Send_time
                                                   setFreq
    -------------------------------------------------------------------------
CODE_C
  Relative segment, address: CODE 00001B3E - 00001B5E (0x21 bytes), align: 0
  Segment part 221.           Intra module refs:   setFreq
    -------------------------------------------------------------------------
CODE_C
  Relative segment, address: CODE 00001B5F - 00001B66 (0x8 bytes), align: 0
  Segment part 222.           Intra module refs:   RI_Send
           LOCAL                   ADDRESS         
           =====                   =======         
           RI_Send::__FUNCTION__   00001B5F 
    -------------------------------------------------------------------------
CODE_C
  Relative segment, address: CODE 00001B67 - 00001B71 (0xb bytes), align: 0
  Segment part 223.           Intra module refs:   RI_Send
                                                   RI_Send_time
    -------------------------------------------------------------------------
CODE_C
  Relative segment, address: CODE 00001B72 - 00001B7E (0xd bytes), align: 0
  Segment part 224.           Intra module refs:   RI_Send_time
           LOCAL                   ADDRESS         
           =====                   =======         
           RI_Send_time::__FUNCTION__
                                   00001B72 
    -------------------------------------------------------------------------
CODE_C
  Relative segment, address: CODE 00001B7F - 00001B89 (0xb bytes), align: 0
  Segment part 225.           Intra module refs:   RI_Receive
           LOCAL                   ADDRESS         
           =====                   =======         
           RI_Receive::__FUNCTION__
                                   00001B7F 
    -------------------------------------------------------------------------
CODE_C
  Relative segment, address: CODE 00001B8A - 00001B8F (0x6 bytes), align: 0
  Segment part 226.           Intra module refs:   RI_Receive
    -------------------------------------------------------------------------
CODE_C
  Relative segment, address: CODE 00001B90 - 00001B95 (0x6 bytes), align: 0
  Segment part 227.           Intra module refs:   RI_Receive
    -------------------------------------------------------------------------
CODE_C
  Relative segment, address: CODE 00001B96 - 00001BA6 (0x11 bytes), align: 0
  Segment part 228.           Intra module refs:   syncronize_timer
           LOCAL                   ADDRESS         
           =====                   =======         
           syncronize_timer::__FUNCTION__
                                   00001B96 
    -------------------------------------------------------------------------
CODE_C
  Relative segment, address: CODE 00001BA7 - 00001BAD (0x7 bytes), align: 0
  Segment part 229.           Intra module refs:   Hot_Start
                                                   mode_1_process
                                                   mode_1_receive_process
                                                   recv_sync
                                                   send_sync
                                                   syncronize_timer
    -------------------------------------------------------------------------
CODE_C
  Relative segment, address: CODE 00001BAE - 00001BB2 (0x5 bytes), align: 0
  Segment part 230.           Intra module refs:   Hot_Start
                                                   mode_1_process
                                                   mode_1_receive_process
                                                   recv_sync
                                                   send_sync
                                                   syncronize_timer
    -------------------------------------------------------------------------
CODE_C
  Relative segment, address: CODE 00001BB3 - 00001BB5 (0x3 bytes), align: 0
  Segment part 231.           Intra module refs:   mode_1_process
                                                   mode_1_receive_process
                                                   send_sync
                                                   syncronize_timer
    -------------------------------------------------------------------------
CODE_C
  Relative segment, address: CODE 00001BB6 - 00001BC1 (0xc bytes), align: 0
  Segment part 232.           Intra module refs:   syncronize_timer
    -------------------------------------------------------------------------
CODE_C
  Relative segment, address: CODE 00001BC2 - 00001BC4 (0x3 bytes), align: 0
  Segment part 233.           Intra module refs:   mode_1_process
                                                   mode_1_receive_process
                                                   send_sync
                                                   syncronize_timer
    -------------------------------------------------------------------------
CODE_C
  Relative segment, address: CODE 00001BC5 - 00001BDB (0x17 bytes), align: 0
  Segment part 234.           Intra module refs:   mode_1_receive_process
           LOCAL                   ADDRESS         
           =====                   =======         
           mode_1_receive_process::__FUNCTION__
                                   00001BC5 
    -------------------------------------------------------------------------
CODE_C
  Relative segment, address: CODE 00001BDC - 00001BF5 (0x1a bytes), align: 0
  Segment part 235.           Intra module refs:   mode_1_receive_process
    -------------------------------------------------------------------------
CODE_C
  Relative segment, address: CODE 00001BF6 - 00001C04 (0xf bytes), align: 0
  Segment part 236.           Intra module refs:   mode_1_process
           LOCAL                   ADDRESS         
           =====                   =======         
           mode_1_process::__FUNCTION__
                                   00001BF6 
    -------------------------------------------------------------------------
CODE_C
  Relative segment, address: CODE 00001C05 - 00001C0D (0x9 bytes), align: 0
  Segment part 237.           Intra module refs:   mode_1_process
    -------------------------------------------------------------------------
CODE_C
  Relative segment, address: CODE 00001C0E - 00001C17 (0xa bytes), align: 0
  Segment part 238.           Intra module refs:   Hot_Start
           LOCAL                   ADDRESS         
           =====                   =======         
           Hot_Start::__FUNCTION__
                                   00001C0E 
    -------------------------------------------------------------------------
CODE_C
  Relative segment, address: CODE 00001C18 - 00001C22 (0xb bytes), align: 0
  Segment part 239.           Intra module refs:   Hot_Start
    -------------------------------------------------------------------------
CODE_C
  Relative segment, address: CODE 00001C23 - 00001C2C (0xa bytes), align: 0
  Segment part 240.           Intra module refs:   recv_sync
           LOCAL                   ADDRESS         
           =====                   =======         
           recv_sync::__FUNCTION__
                                   00001C23 
    -------------------------------------------------------------------------
CODE_C
  Relative segment, address: CODE 00001C2D - 00001C3A (0xe bytes), align: 0
  Segment part 241.           Intra module refs:   recv_sync
    -------------------------------------------------------------------------
CODE_C
  Relative segment, address: CODE 00001C3B - 00001C44 (0xa bytes), align: 0
  Segment part 242.           Intra module refs:   send_sync
           LOCAL                   ADDRESS         
           =====                   =======         
           send_sync::__FUNCTION__
                                   00001C3B 
    -------------------------------------------------------------------------
CODE_C
  Relative segment, address: CODE 00001C45 - 00001C47 (0x3 bytes), align: 0
  Segment part 243.           Intra module refs:   send_sync
    -------------------------------------------------------------------------
CODE_C
  Relative segment, address: CODE 00001C48 - 00001C52 (0xb bytes), align: 0
  Segment part 244.           Intra module refs:   send_sync
    -------------------------------------------------------------------------
CODE_C
  Relative segment, address: CODE 00001C53 - 00001C68 (0x16 bytes), align: 0
  Segment part 245.           Intra module refs:   send_sync
    -------------------------------------------------------------------------
CODE_C
  Relative segment, address: CODE 00001C69 - 00001C74 (0xc bytes), align: 0
  Segment part 247.           Intra module refs:   TM_SetAlarm
           LOCAL                   ADDRESS         
           =====                   =======         
           TM_SetAlarm::__FUNCTION__
                                   00001C69 
    -------------------------------------------------------------------------
CODE_C
  Relative segment, address: CODE 00001C75 - 00001C83 (0xf bytes), align: 0
  Segment part 248.           Intra module refs:   Neocore_start
                                                   TM_ClrAlarm
                                                   TM_SetAlarm
    -------------------------------------------------------------------------
CODE_C
  Relative segment, address: CODE 00001C84 - 00001C88 (0x5 bytes), align: 0
  Segment part 249.           Intra module refs:   Neocore_start
                                                   TM_ClrAlarm
                                                   TM_SetAlarm
    -------------------------------------------------------------------------
CODE_C
  Relative segment, address: CODE 00001C89 - 00001C8B (0x3 bytes), align: 0
  Segment part 250.           Intra module refs:   TM_ClrAlarm
                                                   TM_SetAlarm
    -------------------------------------------------------------------------
CODE_C
  Relative segment, address: CODE 00001C8C - 00001CA1 (0x16 bytes), align: 0
  Segment part 251.           Intra module refs:   TM_ClrAlarm
                                                   TM_SetAlarm
    -------------------------------------------------------------------------
CODE_C
  Relative segment, address: CODE 00001CA2 - 00001CAD (0xc bytes), align: 0
  Segment part 252.           Intra module refs:   TM_ClrAlarm
           LOCAL                   ADDRESS         
           =====                   =======         
           TM_ClrAlarm::__FUNCTION__
                                   00001CA2 
    -------------------------------------------------------------------------
CODE_C
  Relative segment, address: CODE 00001CAE - 00001CBB (0xe bytes), align: 0
  Segment part 253.           Intra module refs:   Neocore_start
           LOCAL                   ADDRESS         
           =====                   =======         
           Neocore_start::__FUNCTION__
                                   00001CAE 
    -------------------------------------------------------------------------
CODE_C
  Relative segment, address: CODE 00001CBC - 00001CD3 (0x18 bytes), align: 0
  Segment part 254.           Intra module refs:   Neocore_start
    -------------------------------------------------------------------------
CODE_C
  Relative segment, address: CODE 00001CD4 - 00001CD7 (0x4 bytes), align: 0
  Segment part 325.           Intra module refs:   AT_time
                                                   AT_wait
           ENTRY                   ADDRESS         REF BY
           =====                   =======         ======
           __Constant_7fff         00001CD4 
    -------------------------------------------------------------------------
CODE_C
  Relative segment, address: CODE 00001CD8 - 00001CDB (0x4 bytes), align: 0
  Segment part 326.           Intra module refs:   calcCompareTime
           ENTRY                   ADDRESS         REF BY
           =====                   =======         ======
           __Constant_ffff8000     00001CD8 
    -------------------------------------------------------------------------
CODE_C
  Relative segment, address: CODE 00001CDC - 00001CDF (0x4 bytes), align: 0
  Segment part 327.           Intra module refs:   calcCompareTime
           ENTRY                   ADDRESS         REF BY
           =====                   =======         ======
           __Constant_8000         00001CDC 
    -------------------------------------------------------------------------
CODE_C
  Relative segment, address: CODE 00001CE0 - 00001CE3 (0x4 bytes), align: 0
  Segment part 328.           Intra module refs:   calcCompareTime
           ENTRY                   ADDRESS         REF BY
           =====                   =======         ======
           __Constant_ffffff       00001CE0 
    -------------------------------------------------------------------------
CODE_C
  Relative segment, address: CODE 00001CE4 - 00001CE7 (0x4 bytes), align: 0
  Segment part 329.           Intra module refs:   _recv_frame
           ENTRY                   ADDRESS         REF BY
           =====                   =======         ======
           __Constant_9c4          00001CE4 
    -------------------------------------------------------------------------
CODE_C
  Relative segment, address: CODE 00001CE8 - 00001CEB (0x4 bytes), align: 0
  Segment part 330.           Intra module refs:   _send_frame
           ENTRY                   ADDRESS         REF BY
           =====                   =======         ======
           __Constant_396          00001CE8 
    -------------------------------------------------------------------------
CODE_C
  Relative segment, address: CODE 00001CEC - 00001CEF (0x4 bytes), align: 0
  Segment part 331.           Intra module refs:   Hot_Start
                                                   RI_Receive
                                                   RI_Send
                                                   RI_Send_time
           ENTRY                   ADDRESS         REF BY
           =====                   =======         ======
           __Constant_1            00001CEC 
    -------------------------------------------------------------------------
CODE_C
  Relative segment, address: CODE 00001CF0 - 00001CF3 (0x4 bytes), align: 0
  Segment part 332.           Intra module refs:   validate_sync
           ENTRY                   ADDRESS         REF BY
           =====                   =======         ======
           __Constant_19833891     00001CF0 
    -------------------------------------------------------------------------
CODE_C
  Relative segment, address: CODE 00001CF4 - 00001CF7 (0x4 bytes), align: 0
  Segment part 333.           Intra module refs:   mode_1_receive_process
                                                   mode_2_process
           ENTRY                   ADDRESS         REF BY
           =====                   =======         ======
           __Constant_a            00001CF4 
    -------------------------------------------------------------------------
CODE_C
  Relative segment, address: CODE 00001CF8 - 00001CFB (0x4 bytes), align: 0
  Segment part 334.           Intra module refs:   mode_1_process
           ENTRY                   ADDRESS         REF BY
           =====                   =======         ======
           __Constant_3d           00001CF8 
    -------------------------------------------------------------------------
CODE_C
  Relative segment, address: CODE 00001CFC - 00001CFF (0x4 bytes), align: 0
  Segment part 335.           Intra module refs:   energy_scan
           ENTRY                   ADDRESS         REF BY
           =====                   =======         ======
           __Constant_1f40         00001CFC 
    -------------------------------------------------------------------------
CODE_C
  Relative segment, address: CODE 00001D00 - 00001D03 (0x4 bytes), align: 0
  Segment part 336.           Intra module refs:   UST_delay
           ENTRY                   ADDRESS         REF BY
           =====                   =======         ======
           __Constant_20           00001D00 
    -------------------------------------------------------------------------
CODE_C
  Relative segment, address: CODE 00001D04 - 00001D07 (0x4 bytes), align: 0
  Segment part 337.           Intra module refs:   DelayCalibrate
           ENTRY                   ADDRESS         REF BY
           =====                   =======         ======
           __Constant_1f4          00001D04 
    -------------------------------------------------------------------------
CODE_C
  Relative segment, address: CODE 00001D08 - 00001D0B (0x4 bytes), align: 0
  Segment part 338.           Intra module refs:   DelayCalibrate
           ENTRY                   ADDRESS         REF BY
           =====                   =======         ======
           __Constant_ffffc180     00001D08 

    *************************************************************************

  FILE NAME : E:\Neocore\Hardware\PRG Transmiter\Debug\Obj\alarm_timer.r51
    *************************************************************************

  FILE NAME : E:\Neocore\Hardware\PRG Transmiter\Debug\Obj\cmd_0x00.r51
    *************************************************************************

  FILE NAME : E:\Neocore\Hardware\PRG Transmiter\Debug\Obj\cmd_0x01.r51
    *************************************************************************

  FILE NAME : E:\Neocore\Hardware\PRG Transmiter\Debug\Obj\cmd_0x02.r51
    *************************************************************************

  FILE NAME : E:\Neocore\Hardware\PRG Transmiter\Debug\Obj\cmd_0x03.r51
    *************************************************************************

  FILE NAME : E:\Neocore\Hardware\PRG Transmiter\Debug\Obj\cmd_0x04.r51
    *************************************************************************

  FILE NAME : E:\Neocore\Hardware\PRG Transmiter\Debug\Obj\cmd_0x05.r51
    *************************************************************************

  FILE NAME : E:\Neocore\Hardware\PRG Transmiter\Debug\Obj\cmd_0x06.r51
    *************************************************************************

  FILE NAME : E:\Neocore\Hardware\PRG Transmiter\Debug\Obj\cmd_0x07.r51
    *************************************************************************

  FILE NAME : E:\Neocore\Hardware\PRG Transmiter\Debug\Obj\cmd_0x08.r51
    *************************************************************************

  FILE NAME : E:\Neocore\Hardware\PRG Transmiter\Debug\Obj\cmd_0x09.r51
    *************************************************************************

  FILE NAME : E:\Neocore\Hardware\PRG Transmiter\Debug\Obj\cmd_0x0A.r51
    *************************************************************************

  FILE NAME : E:\Neocore\Hardware\PRG Transmiter\Debug\Obj\cmd_0x0B.r51
    *************************************************************************

  FILE NAME : E:\Neocore\Hardware\PRG Transmiter\Debug\Obj\cmd_0x0C.r51
    *************************************************************************

  FILE NAME : E:\Neocore\Hardware\PRG Transmiter\Debug\Obj\cmd_0x0D.r51
    *************************************************************************

  FILE NAME : E:\Neocore\Hardware\PRG Transmiter\Debug\Obj\cmd_0x0E.r51
    *************************************************************************

  FILE NAME : E:\Neocore\Hardware\PRG Transmiter\Debug\Obj\cmd_0x0F.r51
    *************************************************************************

  FILE NAME : E:\Neocore\Hardware\PRG Transmiter\Debug\Obj\cmd_0x10.r51
    *************************************************************************

  FILE NAME : E:\Neocore\Hardware\PRG Transmiter\Debug\Obj\cmd_0x11.r51
    *************************************************************************

  FILE NAME : E:\Neocore\Hardware\PRG Transmiter\Debug\Obj\cmd_parser.r51
    *************************************************************************

  FILE NAME : E:\Neocore\Hardware\PRG Transmiter\Debug\Obj\coder.r51
    *************************************************************************

  FILE NAME : E:\Neocore\Hardware\PRG Transmiter\Debug\Obj\cpu.r51
    *************************************************************************

  FILE NAME : E:\Neocore\Hardware\PRG Transmiter\Debug\Obj\debug.r51
    *************************************************************************

  FILE NAME : E:\Neocore\Hardware\PRG Transmiter\Debug\Obj\dma.r51
    *************************************************************************

  FILE NAME : E:\Neocore\Hardware\PRG Transmiter\Debug\Obj\frame.r51
    *************************************************************************

  FILE NAME : E:\Neocore\Hardware\PRG Transmiter\Debug\Obj\led.r51
    *************************************************************************

  FILE NAME : E:\Neocore\Hardware\PRG Transmiter\Debug\Obj\llc.r51
    *************************************************************************

  FILE NAME : E:\Neocore\Hardware\PRG Transmiter\Debug\Obj\mac.r51
    *************************************************************************

  FILE NAME : E:\Neocore\Hardware\PRG Transmiter\Debug\Obj\main.r51
    *************************************************************************

  FILE NAME : E:\Neocore\Hardware\PRG Transmiter\Debug\Obj\mem_slots.r51
    *************************************************************************

  FILE NAME : E:\Neocore\Hardware\PRG Transmiter\Debug\Obj\mem_utils.r51
    *************************************************************************

  FILE NAME : E:\Neocore\Hardware\PRG Transmiter\Debug\Obj\model.r51
    *************************************************************************

  FILE NAME : E:\Neocore\Hardware\PRG Transmiter\Debug\Obj\radio.r51
    *************************************************************************

  FILE NAME : E:\Neocore\Hardware\PRG Transmiter\Debug\Obj\rtc.r51
    *************************************************************************

  FILE NAME : E:\Neocore\Hardware\PRG Transmiter\Debug\Obj\sync.r51
    *************************************************************************

  FILE NAME : E:\Neocore\Hardware\PRG Transmiter\Debug\Obj\time_manager.r51
    *************************************************************************

  FILE NAME : E:\Neocore\Hardware\PRG Transmiter\Debug\Obj\uart_comm.r51
    *************************************************************************

  FILE NAME : E:\Neocore\Hardware\PRG Transmiter\Debug\Obj\ustimer.r51
    *************************************************************************

  FILE NAME : C:\Program Files (x86)\IAR Systems\Embedded Workbench 8.0\8051\LIB\CLIB\cl-pli-blxc-1e16x01.r51
  LIBRARY MODULE, NAME : ?cexit

  SEGMENTS IN THE MODULE
  ======================
CSTART
  Relative segment, address: CODE 0000002E - 00000032 (0x5 bytes), align: 0
  Segment part 0.
           ENTRY                   ADDRESS         REF BY
           =====                   =======         ======
           exit                    0000002E        ?call_main (?cmain)
           ?C_EXIT                 0000002E 
           ?ROM_MONITOR_NOPS       0000002E 

    -------------------------------------------------------------------------
  LIBRARY MODULE, NAME : ?cmain

  SEGMENTS IN THE MODULE
  ======================
CSTART
  Relative segment, address: CODE 00000033, align: 0
  Segment part 5.
           ENTRY                   ADDRESS         REF BY
           =====                   =======         ======
           ?cmain                  00000033        Segment part 13 (CSTARTUP)
               calls direct
    -------------------------------------------------------------------------
CSTART
  Relative segment, address: CODE 00000033 - 00000042 (0x10 bytes), align: 0
  Segment part 16.
           ENTRY                   ADDRESS         REF BY
           =====                   =======         ======
           __INIT_XDATA_Z          00000033        ACTIONSLOTS (action_manager)
                                                   ALARMS (action_manager)
                                                   AT_wait::val (action_manager)
                                                   CALLBACK (action_manager)
                                                   COMPARE_TIME (action_manager)
                                                   DELAY_CALIBRATE_TICS (action_manager)
                                                   DMA_CH (action_manager)
                                                   MODEL (action_manager)
                                                   RXBUFF (action_manager)
                                                   ReadTimer::ret_val (action_manager)
                                                   SLOT_POOL (action_manager)
                                                   TOFFSET (action_manager)
                                                   retransmite (action_manager)
                                                   slot_busy (action_manager)
                                                   uart_rx_buff (action_manager)
                                                   upload (action_manager)
    -------------------------------------------------------------------------
CSTART
  Relative segment, address: CODE 00000043 - 00000068 (0x26 bytes), align: 0
  Segment part 33.
           ENTRY                   ADDRESS         REF BY
           =====                   =======         ======
           __INIT_XDATA_I          00000043        AT_MODULE (action_manager)
                                                   CMD_LIST (action_manager)
                                                   CODER_MODULE (action_manager)
                                                   COLD_MOD (action_manager)
                                                   CPU_MODULE (action_manager)
                                                   DBG_MODULE (action_manager)
                                                   DMA_MODULE (action_manager)
                                                   FR_MODULE (action_manager)
                                                   HOT_MOD (action_manager)
                                                   HW_MOD (action_manager)
                                                   IRQ_MOD (action_manager)
                                                   LED_MODULE (action_manager)
                                                   LLC_MODULE (action_manager)
                                                   MAC_MODULE (action_manager)
                                                   MD_MODULE (action_manager)
                                                   MS_MODULE (action_manager)
                                                   RADIO_MODULE (action_manager)
                                                   RTC_MODULE (action_manager)
                                                   SW_MOD (action_manager)
                                                   SYNC_MODULE (action_manager)
                                                   UST_MODULE (action_manager)
                                                   __next_rand (?rand)
                                                   energy_scan::scan_channel (action_manager)
    -------------------------------------------------------------------------
CSTART
  Relative segment, address: CODE 00000069 - 0000007E (0x16 bytes), align: 0
  Segment part 38.            Intra module refs:   ?cmain
           ENTRY                   ADDRESS         REF BY
           =====                   =======         ======
           ?call_main              00000069 

    -------------------------------------------------------------------------
  LIBRARY MODULE, NAME : CSTARTUP

  SEGMENTS IN THE MODULE
  ======================
REGISTERS
  Relative segment, address: DATA 00000000, align: 0
  Segment part 0.             Intra module refs:   Segment part 6
           ENTRY                   ADDRESS         REF BY
           =====                   =======         ======
           ?REGISTERS              00000000 
    -------------------------------------------------------------------------
ISTACK
  Relative segment, address: IDATA 00000080, align: 0
  Segment part 1.             Intra module refs:   Segment part 6
           ENTRY                   ADDRESS         REF BY
           =====                   =======         ======
           ?ISTACK_START           00000080 
    -------------------------------------------------------------------------
PSTACK
  Relative segment, address: XDATA 00001E00, align: 0
  Segment part 2.             Intra module refs:   ?RESET_PSP
           ENTRY                   ADDRESS         REF BY
           =====                   =======         ======
           ?PSTACK_START           00001E00 
    -------------------------------------------------------------------------
XSTACK
  Relative segment, address: XDATA 00000001, align: 0
  Segment part 3.             Intra module refs:   ?RESET_XSP
           ENTRY                   ADDRESS         REF BY
           =====                   =======         ======
           ?XSTACK_START           00000001 
    -------------------------------------------------------------------------
INTVEC
  Common segment, address: CODE 00000000 - 00000002 (0x3 bytes), align: 0
  Segment part 5. ROOT        Intra module refs:   Segment part 6
    -------------------------------------------------------------------------
CSTART
  Relative segment, address: CODE 0000007F - 00000084 (0x6 bytes), align: 0
  Segment part 6. ROOT        Intra module refs:   Segment part 5
           ENTRY                   ADDRESS         REF BY
           =====                   =======         ======
           __program_start         0000007F        Absolute parts (?ABS_ENTRY_MOD)
           ?RESET_SP               00000082 
    -------------------------------------------------------------------------
CSTART
  Relative segment, address: CODE 00000085 - 00000087 (0x3 bytes), align: 0
  Segment part 7.
           ENTRY                   ADDRESS         REF BY
           =====                   =======         ======
           ?RESET_PSP              00000085        ?PSP (VIRTUAL_REGISTERS)
    -------------------------------------------------------------------------
CSTART
  Relative segment, address: CODE 00000088 - 0000008D (0x6 bytes), align: 0
  Segment part 8.
           ENTRY                   ADDRESS         REF BY
           =====                   =======         ======
           ?RESET_XSP              00000088        ?XSP (VIRTUAL_REGISTERS)
    -------------------------------------------------------------------------
CSTART
  Relative segment, address: CODE 0000008E - 00000090 (0x3 bytes), align: 0
  Segment part 9.
           ENTRY                   ADDRESS         REF BY
           =====                   =======         ======
           ?RESET_CODE_BANK        0000008E        Absolute parts (?BANKED_CODE_SUPPORT)
    -------------------------------------------------------------------------
CSTART
  Relative segment, address: CODE 00000091 - 00000093 (0x3 bytes), align: 0
  Segment part 11.            Intra module refs:   ?RESET_PSP
           ENTRY                   ADDRESS         REF BY
           =====                   =======         ======
           ?RESET_PDATA_BANK       00000091 
    -------------------------------------------------------------------------
CSTART
  Relative segment, address: CODE 00000094 - 00000096 (0x3 bytes), align: 0
  Segment part 13.            Intra module refs:   Absolute parts

    -------------------------------------------------------------------------
  LIBRARY MODULE, NAME : VIRTUAL_REGISTERS

  SEGMENTS IN THE MODULE
  ======================
BREG
  Relative segment, address: BIT 00000020.0 - 00000020.7 (0x8 bits), align: 0
  Segment part 0.
           ENTRY                   ADDRESS         REF BY
           =====                   =======         ======
           ?B0                     00000020.0      Absolute parts (CSTARTUP)
    -------------------------------------------------------------------------
VREG
  Relative segment, address: DATA 00000008 - 00000008 (0x1 bytes), align: 0
  Segment part 1.             Intra module refs:   ?V1
           ENTRY                   ADDRESS         REF BY
           =====                   =======         ======
           ?V0                     00000008        ?BANKED_ENTER_XDATA (?BANKED_ENTER_XDATA)
                                                   ?BANKED_LEAVE_XDATA (?BANKED_LEAVE_XDATA)
                                                   ?INTERRUPT_ENTER_XSP (?INTERRUPT_ENTER_XSP)
                                                   ?INTERRUPT_LEAVE_XSP (?INTERRUPT_LEAVE_XSP)
                                                   ?LONGJMP_XDATA (?LONGJMP_XDATA)
                                                   ?SETJMP_XDATA (?SETJMP_XDATA)
                                                   ?SL_GE_C (?SL_GE_C)
                                                   ?UL_GE_C (?UL_GE_C)
                                                   ?UL_GE_X (?UL_GE_X)
                                                   AES_StreamCoder (action_manager)
                                                   AM_Callback (action_manager)
                                                   AM_Cold_start (action_manager)
                                                   AM_HW_Init (action_manager)
                                                   AM_Hot_start (action_manager)
                                                   AM_IRQ_Init (action_manager)
                                                   AM_SW_Init (action_manager)
                                                   AT_set_alarm (action_manager)
                                                   AT_set_time (action_manager)
                                                   AT_time (action_manager)
                                                   AT_wait (action_manager)
                                                   DelayCalibrate (action_manager)
                                                   FR_add_header (action_manager)
                                                   Hot_Start (action_manager)
                                                   LLC_add_tx_frame (action_manager)
                                                   LLC_close_slot (action_manager)
                                                   LLC_open_slot (action_manager)
                                                   MAC_Receive (action_manager)
                                                   Neocore_start (action_manager)
                                                   RI_Measure_POW (action_manager)
                                                   RI_Receive (action_manager)
                                                   RI_Send (action_manager)
                                                   RI_Send_time (action_manager)
                                                   RecvData (action_manager)
                                                   SL_alloc (action_manager)
                                                   SL_free (action_manager)
                                                   SL_set_rx (action_manager)
                                                   SL_set_tx (action_manager)
                                                   Segment part 45 (?largewr_p)
                                                   Segment part 65 (?largewr_p)
                                                   Segment part 66 (?largewr_p)
                                                   Segment part 75 (?largewr_p)
                                                   SendData (action_manager)
                                                   TM_ClrAlarm (action_manager)
                                                   TM_IRQ (action_manager)
                                                   TM_SetAlarm (action_manager)
                                                   TimerCompareInterrupt (action_manager)
                                                   UST_delay (action_manager)
                                                   UST_interval (action_manager)
                                                   UST_time_over (action_manager)
                                                   _formatted_write_P (?largewr_p)
                                                   _interval (action_manager)
                                                   _recv_frame (action_manager)
                                                   _send_ack (action_manager)
                                                   _send_frame (action_manager)
                                                   _throw_dice (action_manager)
                                                   calcCompareTime (action_manager)
                                                   cmd_0x00 (action_manager)
                                                   cmd_0x01 (action_manager)
                                                   cmd_0x02 (action_manager)
                                                   cmd_0x03 (action_manager)
                                                   cmd_0x04 (action_manager)
                                                   cmd_0x05 (action_manager)
                                                   cmd_0x06 (action_manager)
                                                   cmd_0x07 (action_manager)
                                                   cmd_0x08 (action_manager)
                                                   cmd_0x09 (action_manager)
                                                   cmd_0x0A (action_manager)
                                                   cmd_0x0B (action_manager)
                                                   cmd_0x0C (action_manager)
                                                   cmd_0x0D (action_manager)
                                                   cmd_0x0E (action_manager)
                                                   cmd_0x0F (action_manager)
                                                   cmd_0x10 (action_manager)
                                                   cmd_0x11 (action_manager)
                                                   cmd_answer (action_manager)
                                                   energy_scan (action_manager)
                                                   float_conversion (?largewr_p)
                                                   loadTimerCompare (action_manager)
                                                   main (action_manager)
                                                   memcpy (?memcpy)
                                                   mode_1_process (action_manager)
                                                   mode_1_receive_process (action_manager)
                                                   mode_2_process (action_manager)
                                                   parse_uart_stream (action_manager)
                                                   pre_init (action_manager)
                                                   printf_P (?printf_p)
                                                   rand (?rand)
                                                   recv_sync (action_manager)
                                                   scheduler_rx (action_manager)
                                                   scheduler_tx (action_manager)
                                                   scheulder_next_alarm (action_manager)
                                                   send_sync (action_manager)
                                                   setFreq (action_manager)
                                                   stream_write (action_manager)
                                                   syncronize_timer (action_manager)
                                                   transmite (action_manager)
                                                   uart_write (action_manager)
                                                   upload_frame (action_manager)
                                                   validate_sync (action_manager)
    -------------------------------------------------------------------------
VREG
  Relative segment, address: DATA 00000009 - 00000009 (0x1 bytes), align: 0
  Segment part 2.             Intra module refs:   ?V2
           ENTRY                   ADDRESS         REF BY
           =====                   =======         ======
           ?V1                     00000009        AES_StreamCoder (action_manager)
                                                   AM_Callback (action_manager)
                                                   AM_Cold_start (action_manager)
                                                   AM_HW_Init (action_manager)
                                                   AM_Hot_start (action_manager)
                                                   AM_IRQ_Init (action_manager)
                                                   AM_SW_Init (action_manager)
                                                   AT_set_alarm (action_manager)
                                                   AT_set_time (action_manager)
                                                   AT_time (action_manager)
                                                   AT_wait (action_manager)
                                                   DelayCalibrate (action_manager)
                                                   FR_add_header (action_manager)
                                                   Hot_Start (action_manager)
                                                   LLC_add_tx_frame (action_manager)
                                                   LLC_close_slot (action_manager)
                                                   LLC_open_slot (action_manager)
                                                   Neocore_start (action_manager)
                                                   RI_Measure_POW (action_manager)
                                                   RI_Receive (action_manager)
                                                   RI_Send (action_manager)
                                                   RI_Send_time (action_manager)
                                                   RecvData (action_manager)
                                                   SL_alloc (action_manager)
                                                   Segment part 40 (?largewr_p)
                                                   Segment part 41 (?largewr_p)
                                                   Segment part 45 (?largewr_p)
                                                   Segment part 65 (?largewr_p)
                                                   Segment part 75 (?largewr_p)
                                                   SendData (action_manager)
                                                   TM_ClrAlarm (action_manager)
                                                   TM_SetAlarm (action_manager)
                                                   TimerCompareInterrupt (action_manager)
                                                   UST_delay (action_manager)
                                                   UST_interval (action_manager)
                                                   UST_time_over (action_manager)
                                                   _formatted_write_P (?largewr_p)
                                                   _interval (action_manager)
                                                   _send_ack (action_manager)
                                                   _send_frame (action_manager)
                                                   _throw_dice (action_manager)
                                                   calcCompareTime (action_manager)
                                                   cmd_0x02 (action_manager)
                                                   cmd_0x04 (action_manager)
                                                   cmd_0x05 (action_manager)
                                                   cmd_0x0C (action_manager)
                                                   cmd_0x0D (action_manager)
                                                   energy_scan (action_manager)
                                                   float_conversion (?largewr_p)
                                                   loadTimerCompare (action_manager)
                                                   main (action_manager)
                                                   memcpy (?memcpy)
                                                   mode_1_process (action_manager)
                                                   mode_1_receive_process (action_manager)
                                                   mode_2_process (action_manager)
                                                   pre_init (action_manager)
                                                   printf_P (?printf_p)
                                                   rand (?rand)
                                                   recv_sync (action_manager)
                                                   scheduler_rx (action_manager)
                                                   scheduler_tx (action_manager)
                                                   send_sync (action_manager)
                                                   setFreq (action_manager)
                                                   syncronize_timer (action_manager)
                                                   transmite (action_manager)
                                                   uart_write (action_manager)
                                                   validate_sync (action_manager)
    -------------------------------------------------------------------------
VREG
  Relative segment, address: DATA 0000000A - 0000000A (0x1 bytes), align: 0
  Segment part 3.             Intra module refs:   ?V3
           ENTRY                   ADDRESS         REF BY
           =====                   =======         ======
           ?V2                     0000000A        AES_StreamCoder (action_manager)
                                                   AT_set_alarm (action_manager)
                                                   AT_set_time (action_manager)
                                                   AT_time (action_manager)
                                                   AT_wait (action_manager)
                                                   DelayCalibrate (action_manager)
                                                   FR_add_header (action_manager)
                                                   Hot_Start (action_manager)
                                                   MAC_Receive (action_manager)
                                                   RI_Measure_POW (action_manager)
                                                   RI_Receive (action_manager)
                                                   RI_Send (action_manager)
                                                   RI_Send_time (action_manager)
                                                   RecvData (action_manager)
                                                   SL_alloc (action_manager)
                                                   SendData (action_manager)
                                                   UST_delay (action_manager)
                                                   UST_interval (action_manager)
                                                   UST_time_over (action_manager)
                                                   _formatted_write_P (?largewr_p)
                                                   _interval (action_manager)
                                                   _recv_frame (action_manager)
                                                   _send_ack (action_manager)
                                                   _send_frame (action_manager)
                                                   calcCompareTime (action_manager)
                                                   cmd_0x00 (action_manager)
                                                   cmd_0x01 (action_manager)
                                                   cmd_0x02 (action_manager)
                                                   cmd_0x03 (action_manager)
                                                   cmd_0x04 (action_manager)
                                                   cmd_0x05 (action_manager)
                                                   cmd_0x06 (action_manager)
                                                   cmd_0x07 (action_manager)
                                                   cmd_0x08 (action_manager)
                                                   cmd_0x0B (action_manager)
                                                   cmd_0x0C (action_manager)
                                                   cmd_0x0D (action_manager)
                                                   cmd_0x0E (action_manager)
                                                   cmd_0x0F (action_manager)
                                                   cmd_0x10 (action_manager)
                                                   cmd_0x11 (action_manager)
                                                   cmd_answer (action_manager)
                                                   energy_scan (action_manager)
                                                   float_conversion (?largewr_p)
                                                   loadTimerCompare (action_manager)
                                                   main (action_manager)
                                                   mode_1_process (action_manager)
                                                   mode_1_receive_process (action_manager)
                                                   mode_2_process (action_manager)
                                                   parse_uart_stream (action_manager)
                                                   rand (?rand)
                                                   recv_sync (action_manager)
                                                   stream_write (action_manager)
                                                   syncronize_timer (action_manager)
                                                   transmite (action_manager)
                                                   validate_sync (action_manager)
    -------------------------------------------------------------------------
VREG
  Relative segment, address: DATA 0000000B - 0000000B (0x1 bytes), align: 0
  Segment part 4.             Intra module refs:   ?V4
           ENTRY                   ADDRESS         REF BY
           =====                   =======         ======
           ?V3                     0000000B        AES_StreamCoder (action_manager)
                                                   AT_set_alarm (action_manager)
                                                   AT_set_time (action_manager)
                                                   AT_time (action_manager)
                                                   AT_wait (action_manager)
                                                   DelayCalibrate (action_manager)
                                                   Hot_Start (action_manager)
                                                   MAC_Receive (action_manager)
                                                   RI_Measure_POW (action_manager)
                                                   RI_Receive (action_manager)
                                                   RI_Send (action_manager)
                                                   RI_Send_time (action_manager)
                                                   RecvData (action_manager)
                                                   SendData (action_manager)
                                                   UST_delay (action_manager)
                                                   UST_interval (action_manager)
                                                   UST_time_over (action_manager)
                                                   _formatted_write_P (?largewr_p)
                                                   _interval (action_manager)
                                                   _recv_frame (action_manager)
                                                   _send_ack (action_manager)
                                                   _send_frame (action_manager)
                                                   calcCompareTime (action_manager)
                                                   cmd_0x00 (action_manager)
                                                   cmd_0x01 (action_manager)
                                                   cmd_0x02 (action_manager)
                                                   cmd_0x03 (action_manager)
                                                   cmd_0x04 (action_manager)
                                                   cmd_0x05 (action_manager)
                                                   cmd_0x06 (action_manager)
                                                   cmd_0x07 (action_manager)
                                                   cmd_0x08 (action_manager)
                                                   cmd_0x0B (action_manager)
                                                   cmd_0x0D (action_manager)
                                                   cmd_0x0E (action_manager)
                                                   cmd_0x0F (action_manager)
                                                   cmd_0x10 (action_manager)
                                                   cmd_0x11 (action_manager)
                                                   cmd_answer (action_manager)
                                                   energy_scan (action_manager)
                                                   float_conversion (?largewr_p)
                                                   loadTimerCompare (action_manager)
                                                   main (action_manager)
                                                   mode_1_process (action_manager)
                                                   mode_1_receive_process (action_manager)
                                                   mode_2_process (action_manager)
                                                   parse_uart_stream (action_manager)
                                                   rand (?rand)
                                                   recv_sync (action_manager)
                                                   stream_write (action_manager)
                                                   syncronize_timer (action_manager)
                                                   validate_sync (action_manager)
    -------------------------------------------------------------------------
VREG
  Relative segment, address: DATA 0000000C - 0000000C (0x1 bytes), align: 0
  Segment part 5.             Intra module refs:   ?V5
           ENTRY                   ADDRESS         REF BY
           =====                   =======         ======
           ?V4                     0000000C        AES_StreamCoder (action_manager)
                                                   AT_set_time (action_manager)
                                                   AT_time (action_manager)
                                                   DelayCalibrate (action_manager)
                                                   FR_add_header (action_manager)
                                                   RI_Measure_POW (action_manager)
                                                   RI_Receive (action_manager)
                                                   RI_Send (action_manager)
                                                   RI_Send_time (action_manager)
                                                   RecvData (action_manager)
                                                   UST_delay (action_manager)
                                                   UST_interval (action_manager)
                                                   UST_time_over (action_manager)
                                                   _formatted_write_P (?largewr_p)
                                                   _interval (action_manager)
                                                   _recv_frame (action_manager)
                                                   calcCompareTime (action_manager)
                                                   cmd_0x01 (action_manager)
                                                   cmd_0x03 (action_manager)
                                                   cmd_0x04 (action_manager)
                                                   cmd_0x05 (action_manager)
                                                   cmd_0x07 (action_manager)
                                                   cmd_0x08 (action_manager)
                                                   cmd_0x0B (action_manager)
                                                   cmd_0x0C (action_manager)
                                                   cmd_0x0D (action_manager)
                                                   cmd_0x0E (action_manager)
                                                   cmd_0x0F (action_manager)
                                                   cmd_0x10 (action_manager)
                                                   cmd_answer (action_manager)
                                                   float_conversion (?largewr_p)
                                                   main (action_manager)
                                                   mode_1_receive_process (action_manager)
                                                   rand (?rand)
                                                   recv_sync (action_manager)
                                                   syncronize_timer (action_manager)
                                                   transmite (action_manager)
    -------------------------------------------------------------------------
VREG
  Relative segment, address: DATA 0000000D - 0000000D (0x1 bytes), align: 0
  Segment part 6.             Intra module refs:   ?V6
           ENTRY                   ADDRESS         REF BY
           =====                   =======         ======
           ?V5                     0000000D        AES_StreamCoder (action_manager)
                                                   AT_set_time (action_manager)
                                                   AT_time (action_manager)
                                                   DelayCalibrate (action_manager)
                                                   FR_add_header (action_manager)
                                                   RI_Measure_POW (action_manager)
                                                   RI_Receive (action_manager)
                                                   RI_Send (action_manager)
                                                   RI_Send_time (action_manager)
                                                   RecvData (action_manager)
                                                   UST_delay (action_manager)
                                                   UST_interval (action_manager)
                                                   UST_time_over (action_manager)
                                                   _formatted_write_P (?largewr_p)
                                                   _interval (action_manager)
                                                   _recv_frame (action_manager)
                                                   calcCompareTime (action_manager)
                                                   cmd_0x01 (action_manager)
                                                   cmd_0x03 (action_manager)
                                                   cmd_0x04 (action_manager)
                                                   cmd_0x05 (action_manager)
                                                   cmd_0x07 (action_manager)
                                                   cmd_0x08 (action_manager)
                                                   cmd_0x0B (action_manager)
                                                   cmd_0x0C (action_manager)
                                                   cmd_0x0D (action_manager)
                                                   cmd_0x0E (action_manager)
                                                   cmd_0x0F (action_manager)
                                                   cmd_0x10 (action_manager)
                                                   cmd_answer (action_manager)
                                                   float_conversion (?largewr_p)
                                                   main (action_manager)
                                                   mode_1_receive_process (action_manager)
                                                   rand (?rand)
                                                   recv_sync (action_manager)
                                                   syncronize_timer (action_manager)
                                                   transmite (action_manager)
    -------------------------------------------------------------------------
VREG
  Relative segment, address: DATA 0000000E - 0000000E (0x1 bytes), align: 0
  Segment part 7.             Intra module refs:   ?V7
           ENTRY                   ADDRESS         REF BY
           =====                   =======         ======
           ?V6                     0000000E        AES_StreamCoder (action_manager)
                                                   AT_time (action_manager)
                                                   DelayCalibrate (action_manager)
                                                   RI_Receive (action_manager)
                                                   RI_Send (action_manager)
                                                   RI_Send_time (action_manager)
                                                   UST_delay (action_manager)
                                                   UST_interval (action_manager)
                                                   UST_time_over (action_manager)
                                                   _formatted_write_P (?largewr_p)
                                                   _interval (action_manager)
                                                   _recv_frame (action_manager)
                                                   calcCompareTime (action_manager)
                                                   cmd_0x0B (action_manager)
                                                   cmd_answer (action_manager)
                                                   float_conversion (?largewr_p)
                                                   main (action_manager)
                                                   rand (?rand)
    -------------------------------------------------------------------------
VREG
  Relative segment, address: DATA 0000000F - 0000000F (0x1 bytes), align: 0
  Segment part 8.
           ENTRY                   ADDRESS         REF BY
           =====                   =======         ======
           ?V7                     0000000F        AT_time (action_manager)
                                                   DelayCalibrate (action_manager)
                                                   RI_Receive (action_manager)
                                                   RI_Send (action_manager)
                                                   RI_Send_time (action_manager)
                                                   RecvData (action_manager)
                                                   SendData (action_manager)
                                                   UST_delay (action_manager)
                                                   UST_interval (action_manager)
                                                   UST_time_over (action_manager)
                                                   _formatted_write_P (?largewr_p)
                                                   _interval (action_manager)
                                                   _recv_frame (action_manager)
                                                   calcCompareTime (action_manager)
                                                   cmd_0x0B (action_manager)
                                                   cmd_answer (action_manager)
                                                   float_conversion (?largewr_p)
                                                   main (action_manager)
                                                   rand (?rand)
                                                   recv_sync (action_manager)
    -------------------------------------------------------------------------
PSP
  Relative segment, address: DATA 00000010 - 00000010 (0x1 bytes), align: 0
  Segment part 33.
           ENTRY                   ADDRESS         REF BY
           =====                   =======         ======
           ?PSP                    00000010        ?LONGJMP_XDATA (?LONGJMP_XDATA)
                                                   ?RESET_PSP (CSTARTUP)
                                                   ?SETJMP_XDATA (?SETJMP_XDATA)
    -------------------------------------------------------------------------
XSP
  Relative segment, address: DATA 00000011 - 00000012 (0x2 bytes), align: 0
  Segment part 34.
           ENTRY                   ADDRESS         REF BY
           =====                   =======         ======
           ?XSP                    00000011        ?ADD_XSTACK_DISP0_8 (?ADD_XSTACK_DISP8)
                                                   ?ALLOC_XSTACK8 (?ALLOC_XSTACK8)
                                                   ?BANKED_ENTER_XDATA (?BANKED_ENTER_XDATA)
                                                   ?BANKED_LEAVE_XDATA (?BANKED_LEAVE_XDATA)
                                                   ?DEALLOC_XSTACK8 (?DEALLOC_XSTACK8)
                                                   ?INTERRUPT_ENTER_XSP (?INTERRUPT_ENTER_XSP)
                                                   ?INTERRUPT_LEAVE_XSP (?INTERRUPT_LEAVE_XSP)
                                                   ?LONGJMP_XDATA (?LONGJMP_XDATA)
                                                   ?PUSH_XSTACK8_X (?PUSH_XSTACK8_X)
                                                   ?RESET_XSP (CSTARTUP)
                                                   ?SETJMP_XDATA (?SETJMP_XDATA)
                                                   ?XSTACK_DISP0_8 (?XSTACK_DISP8)
                                                   ?XSTACK_DISP100_8 (?XSTACK_DISP8_RP)
                                                   ?XSTACK_DISP101_8 (?XSTACK_DISP8_RP)
                                                   ?XSTACK_DISP102_8 (?XSTACK_DISP8_RP)
                                                   AES_StreamCoder (action_manager)
                                                   DelayCalibrate (action_manager)
                                                   FR_add_header (action_manager)
                                                   HW_Init (action_manager)
                                                   RI_Receive (action_manager)
                                                   RI_Send (action_manager)
                                                   RI_Send_time (action_manager)
                                                   RecvData (action_manager)
                                                   SL_alloc (action_manager)
                                                   SW_Init (action_manager)
                                                   Segment part 27 (?largewr_p)
                                                   Segment part 31 (?largewr_p)
                                                   Segment part 59 (?largewr_p)
                                                   Segment part 67 (?largewr_p)
                                                   Segment part 80 (?largewr_p)
                                                   Segment part 84 (?largewr_p)
                                                   Segment part 85 (?largewr_p)
                                                   SendData (action_manager)
                                                   UST_delay (action_manager)
                                                   UST_interval (action_manager)
                                                   UST_now (action_manager)
                                                   UST_time_over (action_manager)
                                                   _formatted_write_P (?largewr_p)
                                                   _interval (action_manager)
                                                   _send_ack (action_manager)
                                                   calcCompareTime (action_manager)
                                                   cmd_0x00 (action_manager)
                                                   cmd_0x09 (action_manager)
                                                   cmd_0x0A (action_manager)
                                                   cmd_0x0B (action_manager)
                                                   cmd_0x0D (action_manager)
                                                   cmd_answer (action_manager)
                                                   cmd_answer_err (action_manager)
                                                   energy_scan (action_manager)
                                                   float_conversion (?largewr_p)
                                                   loadTimerCompare (action_manager)
                                                   memset (?memset)
                                                   parse_uart_stream (action_manager)
                                                   printf_P (?printf_p)
                                                   recv_sync (action_manager)
                                                   send_sync (action_manager)
                                                   setFreq (action_manager)
                                                   stream_write (action_manager)

    -------------------------------------------------------------------------
  LIBRARY MODULE, NAME : ?BANKED_CODE_SUPPORT

  SEGMENTS IN THE MODULE
  ======================
CSTART
  Relative segment, address: CODE 00000097 - 000000B4 (0x1e bytes), align: 0
  Segment part 0.
           ENTRY                   ADDRESS         REF BY
           =====                   =======         ======
           ?BCALL_FF               00000097        ?call_main (?cmain)
           ?BRET_FF                0000009D        ?BANKED_LEAVE_XDATA (?BANKED_LEAVE_XDATA)
                                                   AT_interval (action_manager)
                                                   Cold_Start (action_manager)
                                                   FR_create (action_manager)
                                                   FR_restart (action_manager)
                                                   FR_rx_frames (action_manager)
                                                   FR_tx_frames (action_manager)
                                                   HW_Init (action_manager)
                                                   Hot_Start (action_manager)
                                                   IRQEnable (action_manager)
                                                   IRQ_Init (action_manager)
                                                   LLC_restart (action_manager)
                                                   LoadTXData (action_manager)
                                                   MEM_memcpy (action_manager)
                                                   MEM_memset (action_manager)
                                                   RI_SetChannel (action_manager)
                                                   ReadTimer (action_manager)
                                                   SL_find_rx (action_manager)
                                                   SL_find_tx (action_manager)
                                                   SL_rx_slots (action_manager)
                                                   SL_tx_slots (action_manager)
                                                   SW_Init (action_manager)
                                                   SW_restart (action_manager)
                                                   UST_now (action_manager)
                                                   UnLoadRXData (action_manager)
                                                   __cli (action_manager)
                                                   _clr_all (action_manager)
                                                   _free (action_manager)
                                                   _inc_timeslot (action_manager)
                                                   _recv_ack (action_manager)
                                                   bits_count (action_manager)
                                                   check_cmd_frame (action_manager)
                                                   getRNDByte (action_manager)
                                                   init (action_manager)
                                                   isIRQEnable (action_manager)
                                                   mcu_sleep (action_manager)
                                                   memset (?memset)
                                                   mode_1_retransmition_process (action_manager)
                                                   pre_config (action_manager)
                                                   put_one_char (?printf_p)
                                                   srand (?srand)
                                                   start_mode_1 (action_manager)
                                                   start_mode_2 (action_manager)
                                                   uart_dma_init (action_manager)
                                                   uart_init (action_manager)
                                                   uart_putchar (action_manager)
                                                   uart_recv_cmd (action_manager)
           ?BDISPATCH_FF           000000A0        AES_StreamCoder::?relay (action_manager)
                                                   AM_Callback::?relay (action_manager)
                                                   AM_Cold_start::?relay (action_manager)
                                                   AM_HW_Init::?relay (action_manager)
                                                   AM_Hot_start::?relay (action_manager)
                                                   AM_IRQ_Init::?relay (action_manager)
                                                   AM_SW_Init::?relay (action_manager)
                                                   AT_enable::?relay (action_manager)
                                                   AT_interval::?relay (action_manager)
                                                   AT_set_alarm::?relay (action_manager)
                                                   AT_set_time::?relay (action_manager)
                                                   AT_time::?relay (action_manager)
                                                   AT_wait::?relay (action_manager)
                                                   Cold_Start::?relay (action_manager)
                                                   DBG_CORE_HALT::?relay (action_manager)
                                                   DelayCalibrate::?relay (action_manager)
                                                   FR_add_header::?relay (action_manager)
                                                   FR_create::?relay (action_manager)
                                                   FR_delete::?relay (action_manager)
                                                   FR_find_rx::?relay (action_manager)
                                                   FR_find_tx::?relay (action_manager)
                                                   FR_restart::?relay (action_manager)
                                                   FR_rx_frames::?relay (action_manager)
                                                   FR_set_rx::?relay (action_manager)
                                                   FR_set_tx::?relay (action_manager)
                                                   FR_tx_frames::?relay (action_manager)
                                                   HW_Init::?relay (action_manager)
                                                   Hot_Start::?relay (action_manager)
                                                   IRQEnable::?relay (action_manager)
                                                   IRQ_Init::?relay (action_manager)
                                                   LLC_add_tx_frame::?relay (action_manager)
                                                   LLC_close_slot::?relay (action_manager)
                                                   LLC_open_slot::?relay (action_manager)
                                                   LLC_restart::?relay (action_manager)
                                                   LoadTXData::?relay (action_manager)
                                                   MAC_Receive::?relay (action_manager)
                                                   MAC_Send::?relay (action_manager)
                                                   MEM_memcpy::?relay (action_manager)
                                                   MEM_memset::?relay (action_manager)
                                                   Neocore_start::?relay (action_manager)
                                                   RI_Measure_POW::?relay (action_manager)
                                                   RI_Receive::?relay (action_manager)
                                                   RI_Send::?relay (action_manager)
                                                   RI_Send_time::?relay (action_manager)
                                                   RI_SetChannel::?relay (action_manager)
                                                   ReadTimer::?relay (action_manager)
                                                   RecvData::?relay (action_manager)
                                                   SL_alloc::?relay (action_manager)
                                                   SL_find_rx::?relay (action_manager)
                                                   SL_find_tx::?relay (action_manager)
                                                   SL_free::?relay (action_manager)
                                                   SL_rx_slots::?relay (action_manager)
                                                   SL_set_rx::?relay (action_manager)
                                                   SL_set_tx::?relay (action_manager)
                                                   SL_tx_slots::?relay (action_manager)
                                                   SW_Init::?relay (action_manager)
                                                   SW_restart::?relay (action_manager)
                                                   SendData::?relay (action_manager)
                                                   TM_ClrAlarm::?relay (action_manager)
                                                   TM_IRQ::?relay (action_manager)
                                                   TM_SetAlarm::?relay (action_manager)
                                                   UST_delay::?relay (action_manager)
                                                   UST_interval::?relay (action_manager)
                                                   UST_now::?relay (action_manager)
                                                   UST_time_over::?relay (action_manager)
                                                   UnLoadRXData::?relay (action_manager)
                                                   __cli::?relay (action_manager)
                                                   _clr_all::?relay (action_manager)
                                                   _find_next_active::?relay (action_manager)
                                                   _formatted_write_P::?relay (?largewr_p)
                                                   _free::?relay (action_manager)
                                                   _inc_timeslot::?relay (action_manager)
                                                   _interval::?relay (action_manager)
                                                   _recv_ack::?relay (action_manager)
                                                   _recv_frame::?relay (action_manager)
                                                   _send_ack::?relay (action_manager)
                                                   _send_frame::?relay (action_manager)
                                                   _throw_dice::?relay (action_manager)
                                                   accept_sync_data::?relay (action_manager)
                                                   bits_count::?relay (action_manager)
                                                   calcCompareTime::?relay (action_manager)
                                                   check_cmd_frame::?relay (action_manager)
                                                   cmd_0x00::?relay (action_manager)
                                                   cmd_0x01::?relay (action_manager)
                                                   cmd_0x02::?relay (action_manager)
                                                   cmd_0x03::?relay (action_manager)
                                                   cmd_0x04::?relay (action_manager)
                                                   cmd_0x05::?relay (action_manager)
                                                   cmd_0x06::?relay (action_manager)
                                                   cmd_0x07::?relay (action_manager)
                                                   cmd_0x08::?relay (action_manager)
                                                   cmd_0x09::?relay (action_manager)
                                                   cmd_0x0A::?relay (action_manager)
                                                   cmd_0x0B::?relay (action_manager)
                                                   cmd_0x0C::?relay (action_manager)
                                                   cmd_0x0D::?relay (action_manager)
                                                   cmd_0x0E::?relay (action_manager)
                                                   cmd_0x0F::?relay (action_manager)
                                                   cmd_0x10::?relay (action_manager)
                                                   cmd_0x11::?relay (action_manager)
                                                   cmd_answer::?relay (action_manager)
                                                   cmd_answer_err::?relay (action_manager)
                                                   com_uart_init::?relay (action_manager)
                                                   crc16::?relay (action_manager)
                                                   energy_scan::?relay (action_manager)
                                                   float_conversion::?relay (?largewr_p)
                                                   getRNDByte::?relay (action_manager)
                                                   init::?relay (action_manager)
                                                   isIRQEnable::?relay (action_manager)
                                                   loadTimerCompare::?relay (action_manager)
                                                   mcu_sleep::?relay (action_manager)
                                                   mem_move::?relay (action_manager)
                                                   memcpy::?relay (?memcpy)
                                                   memset::?relay (?memset)
                                                   mode_1_process::?relay (action_manager)
                                                   mode_1_receive_process::?relay (action_manager)
                                                   mode_1_retransmition_process::?relay (action_manager)
                                                   mode_2_process::?relay (action_manager)
                                                   parse_uart_stream::?relay (action_manager)
                                                   pre_config::?relay (action_manager)
                                                   pre_init::?relay (action_manager)
                                                   printf_P::?relay (?printf_p)
                                                   put_one_char::?relay (?printf_p)
                                                   rand::?relay (?rand)
                                                   random_core_init::?relay (action_manager)
                                                   readRandom::?relay (action_manager)
                                                   receive::?relay (action_manager)
                                                   recv_sync::?relay (action_manager)
                                                   scheduler_rx::?relay (action_manager)
                                                   scheduler_tx::?relay (action_manager)
                                                   scheulder_next_alarm::?relay (action_manager)
                                                   send_sync::?relay (action_manager)
                                                   setFreq::?relay (action_manager)
                                                   srand::?relay (?srand)
                                                   start_mode_1::?relay (action_manager)
                                                   start_mode_2::?relay (action_manager)
                                                   stream_write::?relay (action_manager)
                                                   syncronize_timer::?relay (action_manager)
                                                   transmite::?relay (action_manager)
                                                   uart_dma_init::?relay (action_manager)
                                                   uart_init::?relay (action_manager)
                                                   uart_putchar::?relay (action_manager)
                                                   uart_recv_cmd::?relay (action_manager)
                                                   uart_write::?relay (action_manager)
                                                   upload_frame::?relay (action_manager)
                                                   validate_sync::?relay (action_manager)
                                                   xor_calc::?relay (action_manager)

    -------------------------------------------------------------------------
  LIBRARY MODULE, NAME : ?L_EQ_X

  SEGMENTS IN THE MODULE
  ======================
RCODE
  Relative segment, address: CODE 000005AC - 000005C0 (0x15 bytes), align: 0
  Segment part 1.
           ENTRY                   ADDRESS         REF BY
           =====                   =======         ======
           ?L_EQ_X                 000005AC        main (action_manager)
                                                   validate_sync (action_manager)

    -------------------------------------------------------------------------
  LIBRARY MODULE, NAME : ?SL_GE_C

  SEGMENTS IN THE MODULE
  ======================
RCODE
  Relative segment, address: CODE 000005C1 - 000005EA (0x2a bytes), align: 0
  Segment part 1.
           ENTRY                   ADDRESS         REF BY
           =====                   =======         ======
           ?SL_GE_C                000005C1        _formatted_write_P (?largewr_p)

    -------------------------------------------------------------------------
  LIBRARY MODULE, NAME : ?UL_GT

  SEGMENTS IN THE MODULE
  ======================
RCODE
  Relative segment, address: CODE 000005EB - 000005FA (0x10 bytes), align: 0
  Segment part 1.
           ENTRY                   ADDRESS         REF BY
           =====                   =======         ======
           ?UL_GT                  000005EB        UST_delay (action_manager)
                                                   UST_time_over (action_manager)

    -------------------------------------------------------------------------
  LIBRARY MODULE, NAME : ?UL_GT_X

  SEGMENTS IN THE MODULE
  ======================
RCODE
  Relative segment, address: CODE 000005FB - 0000060A (0x10 bytes), align: 0
  Segment part 1.
           ENTRY                   ADDRESS         REF BY
           =====                   =======         ======
           ?UL_GT_X                000005FB        AT_wait (action_manager)
                                                   UST_delay (action_manager)
                                                   mode_1_process (action_manager)
                                                   mode_2_process (action_manager)

    -------------------------------------------------------------------------
  LIBRARY MODULE, NAME : ?UL_GE_X

  SEGMENTS IN THE MODULE
  ======================
RCODE
  Relative segment, address: CODE 0000060B - 00000629 (0x1f bytes), align: 0
  Segment part 1.
           ENTRY                   ADDRESS         REF BY
           =====                   =======         ======
           ?UL_GE_X                0000060B        UST_interval (action_manager)
                                                   _interval (action_manager)
                                                   calcCompareTime (action_manager)

    -------------------------------------------------------------------------
  LIBRARY MODULE, NAME : ?UL_GE_C

  SEGMENTS IN THE MODULE
  ======================
RCODE
  Relative segment, address: CODE 0000062A - 0000064C (0x23 bytes), align: 0
  Segment part 1.
           ENTRY                   ADDRESS         REF BY
           =====                   =======         ======
           ?UL_GE_C                0000062A        mode_1_process (action_manager)

    -------------------------------------------------------------------------
  LIBRARY MODULE, NAME : ?L_TO_FLT

  SEGMENTS IN THE MODULE
  ======================
RCODE
  Relative segment, address: CODE 0000064D - 0000064F (0x3 bytes), align: 0
  Segment part 0.
           ENTRY                   ADDRESS         REF BY
           =====                   =======         ======
           ?L_TO_FLT               0000064D        float_conversion (?largewr_p)
    -------------------------------------------------------------------------
RCODE
  Relative segment, address: CODE 00000650 - 00000664 (0x15 bytes), align: 0
  Segment part 1.             Intra module refs:   ?L_TO_FLT
           ENTRY                   ADDRESS         REF BY
           =====                   =======         ======
           ?L_TO_FLT_REW           00000650 
    -------------------------------------------------------------------------
RCODE
  Relative segment, address: CODE 00000665 - 00000667 (0x3 bytes), align: 0
  Segment part 2.             Intra module refs:   ?L_TO_FLT_REW
           ENTRY                   ADDRESS         REF BY
           =====                   =======         ======
           ?UL_TO_FLT_REW          00000665 
    -------------------------------------------------------------------------
RCODE
  Relative segment, address: CODE 00000668 - 000006C4 (0x5d bytes), align: 0
  Segment part 3.             Intra module refs:   ?L_TO_FLT_REW
                                                   ?UL_TO_FLT_REW
           ENTRY                   ADDRESS         REF BY
           =====                   =======         ======
           ?UL_TO_FLT              00000668        RI_Receive (action_manager)
                                                   RI_Send (action_manager)
                                                   RI_Send_time (action_manager)

    -------------------------------------------------------------------------
  LIBRARY MODULE, NAME : ?FLT_TO_L

  SEGMENTS IN THE MODULE
  ======================
RCODE
  Relative segment, address: CODE 000006C5 - 000006F8 (0x34 bytes), align: 0
  Segment part 5.
           ENTRY                   ADDRESS         REF BY
           =====                   =======         ======
           ?FLT_TO_L               000006C5        float_conversion (?largewr_p)
    -------------------------------------------------------------------------
RCODE
  Relative segment, address: CODE 000006F9 - 00000704 (0xc bytes), align: 0
  Segment part 6.             Intra module refs:   ?FLT_TO_L
    -------------------------------------------------------------------------
RCODE
  Relative segment, address: CODE 00000705 - 00000753 (0x4f bytes), align: 0
  Segment part 7.             Intra module refs:   ?FLT_TO_L

    -------------------------------------------------------------------------
  LIBRARY MODULE, NAME : ?FLT_TEST_ZERO

  SEGMENTS IN THE MODULE
  ======================
RCODE
  Relative segment, address: CODE 00000754 - 0000075C (0x9 bytes), align: 0
  Segment part 1.
           ENTRY                   ADDRESS         REF BY
           =====                   =======         ======
           ?FLT_TEST_ZERO_REW      00000754        ?FLT_ADD (?FLT_ADD)
                                                   ?FLT_DIV (?FLT_DIV)
                                                   ?FLT_EQ (?FLT_EQ)
                                                   ?FLT_GE (?FLT_GE)
                                                   ?FLT_LT (?FLT_LT)
                                                   ?FLT_MUL (?FLT_MUL)

    -------------------------------------------------------------------------
  LIBRARY MODULE, NAME : ?FLT_TEST_ZERO_R1

  SEGMENTS IN THE MODULE
  ======================
RCODE
  Relative segment, address: CODE 0000075D - 00000765 (0x9 bytes), align: 0
  Segment part 1.
           ENTRY                   ADDRESS         REF BY
           =====                   =======         ======
           ?FLT_TEST_ZERO_R1_REW   0000075D        ?FLT_ADD (?FLT_ADD)
                                                   ?FLT_DIV (?FLT_DIV)
                                                   ?FLT_EQ (?FLT_EQ)
                                                   ?FLT_GE (?FLT_GE)
                                                   ?FLT_LT (?FLT_LT)
                                                   ?FLT_MUL (?FLT_MUL)

    -------------------------------------------------------------------------
  LIBRARY MODULE, NAME : ?FLT_TEST_INF

  SEGMENTS IN THE MODULE
  ======================
RCODE
  Relative segment, address: CODE 00000766 - 00000768 (0x3 bytes), align: 0
  Segment part 0.
           ENTRY                   ADDRESS         REF BY
           =====                   =======         ======
           ?FLT_TEST_INF_REW       00000766        ?FLT_ADD (?FLT_ADD)
                                                   ?FLT_MUL (?FLT_MUL)
    -------------------------------------------------------------------------
RCODE
  Relative segment, address: CODE 00000769 - 00000779 (0x11 bytes), align: 0
  Segment part 1.             Intra module refs:   ?FLT_TEST_INF_REW
           ENTRY                   ADDRESS         REF BY
           =====                   =======         ======
           ?FLT_TEST_INF           00000769        ?FLT_DIV (?FLT_DIV)

    -------------------------------------------------------------------------
  LIBRARY MODULE, NAME : ?FLT_TEST_INF_R1

  SEGMENTS IN THE MODULE
  ======================
RCODE
  Relative segment, address: CODE 0000077A - 0000077C (0x3 bytes), align: 0
  Segment part 0.
           ENTRY                   ADDRESS         REF BY
           =====                   =======         ======
           ?FLT_TEST_INF_R1_REW    0000077A        ?FLT_ADD (?FLT_ADD)
                                                   ?FLT_MUL (?FLT_MUL)
    -------------------------------------------------------------------------
RCODE
  Relative segment, address: CODE 0000077D - 0000078D (0x11 bytes), align: 0
  Segment part 1.             Intra module refs:   ?FLT_TEST_INF_R1_REW
           ENTRY                   ADDRESS         REF BY
           =====                   =======         ======
           ?FLT_TEST_INF_R1        0000077D        ?FLT_DIV (?FLT_DIV)

    -------------------------------------------------------------------------
  LIBRARY MODULE, NAME : ?FLT_TEST_NAN

  SEGMENTS IN THE MODULE
  ======================
RCODE
  Relative segment, address: CODE 0000078E - 0000079C (0xf bytes), align: 0
  Segment part 1.
           ENTRY                   ADDRESS         REF BY
           =====                   =======         ======
           ?FLT_TEST_NAN           0000078E        ?FLT_ADD (?FLT_ADD)
                                                   ?FLT_DIV (?FLT_DIV)
                                                   ?FLT_EQ (?FLT_EQ)
                                                   ?FLT_GE (?FLT_GE)
                                                   ?FLT_LT (?FLT_LT)
                                                   ?FLT_MUL (?FLT_MUL)
                                                   ?FLT_SUB (?FLT_ADD)

    -------------------------------------------------------------------------
  LIBRARY MODULE, NAME : ?FLT_TEST_NAN_R1

  SEGMENTS IN THE MODULE
  ======================
RCODE
  Relative segment, address: CODE 0000079D - 000007AB (0xf bytes), align: 0
  Segment part 1.
           ENTRY                   ADDRESS         REF BY
           =====                   =======         ======
           ?FLT_TEST_NAN_R1        0000079D        ?FLT_ADD (?FLT_ADD)
                                                   ?FLT_DIV (?FLT_DIV)
                                                   ?FLT_EQ (?FLT_EQ)
                                                   ?FLT_GE (?FLT_GE)
                                                   ?FLT_LT (?FLT_LT)
                                                   ?FLT_MUL (?FLT_MUL)
                                                   ?FLT_SUB (?FLT_ADD)

    -------------------------------------------------------------------------
  LIBRARY MODULE, NAME : ?FLT_EQ

  SEGMENTS IN THE MODULE
  ======================
RCODE
  Relative segment, address: CODE 000007AC - 000007D7 (0x2c bytes), align: 0
  Segment part 1.
           ENTRY                   ADDRESS         REF BY
           =====                   =======         ======
           ?FLT_EQ                 000007AC        float_conversion (?largewr_p)

    -------------------------------------------------------------------------
  LIBRARY MODULE, NAME : ?FLT_GE

  SEGMENTS IN THE MODULE
  ======================
RCODE
  Relative segment, address: CODE 000007D8 - 00000826 (0x4f bytes), align: 0
  Segment part 1.
           ENTRY                   ADDRESS         REF BY
           =====                   =======         ======
           ?FLT_GE                 000007D8        float_conversion (?largewr_p)

    -------------------------------------------------------------------------
  LIBRARY MODULE, NAME : ?FLT_LT

  SEGMENTS IN THE MODULE
  ======================
RCODE
  Relative segment, address: CODE 00000827 - 00000872 (0x4c bytes), align: 0
  Segment part 1.
           ENTRY                   ADDRESS         REF BY
           =====                   =======         ======
           ?FLT_LT                 00000827        _formatted_write_P (?largewr_p)
                                                   float_conversion (?largewr_p)

    -------------------------------------------------------------------------
  LIBRARY MODULE, NAME : ?FLT_MUL

  SEGMENTS IN THE MODULE
  ======================
RCODE
  Relative segment, address: CODE 00000873 - 000009F2 (0x180 bytes), align: 0
  Segment part 1.
           ENTRY                   ADDRESS         REF BY
           =====                   =======         ======
           ?FLT_MUL                00000873        float_conversion (?largewr_p)

    -------------------------------------------------------------------------
  LIBRARY MODULE, NAME : ?FLT_ADD

  SEGMENTS IN THE MODULE
  ======================
RCODE
  Relative segment, address: CODE 000009F3 - 00000A17 (0x25 bytes), align: 0
  Segment part 1.
           ENTRY                   ADDRESS         REF BY
           =====                   =======         ======
           ?FLT_SUB                000009F3        float_conversion (?largewr_p)
    -------------------------------------------------------------------------
RCODE
  Relative segment, address: CODE 00000A18 - 00000C31 (0x21a bytes), align: 0
  Segment part 3.             Intra module refs:   ?FLT_SUB
           ENTRY                   ADDRESS         REF BY
           =====                   =======         ======
           ?FLT_ADD                00000A18        RI_Receive (action_manager)
                                                   RI_Send (action_manager)
                                                   RI_Send_time (action_manager)

    -------------------------------------------------------------------------
  LIBRARY MODULE, NAME : ?FLT_DIV

  SEGMENTS IN THE MODULE
  ======================
RCODE
  Relative segment, address: CODE 00000C32 - 00000E17 (0x1e6 bytes), align: 0
  Segment part 1.
           ENTRY                   ADDRESS         REF BY
           =====                   =======         ======
           ?FLT_DIV                00000C32        float_conversion (?largewr_p)

    -------------------------------------------------------------------------
  LIBRARY MODULE, NAME : ?L_MUL

  SEGMENTS IN THE MODULE
  ======================
RCODE
  Relative segment, address: CODE 00000E18 - 00000E1A (0x3 bytes), align: 0
  Segment part 0.
           ENTRY                   ADDRESS         REF BY
           =====                   =======         ======
           ?L_MUL                  00000E18        UST_delay (action_manager)
                                                   rand (?rand)
    -------------------------------------------------------------------------
RCODE
  Relative segment, address: CODE 00000E1B - 00000E97 (0x7d bytes), align: 0
  Segment part 1.             Intra module refs:   ?L_MUL
           ENTRY                   ADDRESS         REF BY
           =====                   =======         ======
           ?L_MUL_REW              00000E1B 

    -------------------------------------------------------------------------
  LIBRARY MODULE, NAME : ?UL_DIV_MOD

  SEGMENTS IN THE MODULE
  ======================
RCODE
  Relative segment, address: CODE 00000E98 - 00000F06 (0x6f bytes), align: 0
  Segment part 1.
           ENTRY                   ADDRESS         REF BY
           =====                   =======         ======
           ?UL_DIV_MOD             00000E98        _formatted_write_P (?largewr_p)

    -------------------------------------------------------------------------
  LIBRARY MODULE, NAME : ?L_NEG

  SEGMENTS IN THE MODULE
  ======================
RCODE
  Relative segment, address: CODE 00000F07 - 00000F09 (0x3 bytes), align: 0
  Segment part 0.
           ENTRY                   ADDRESS         REF BY
           =====                   =======         ======
           ?L_NEG_REW              00000F07        ?L_TO_FLT_REW (?L_TO_FLT)
    -------------------------------------------------------------------------
RCODE
  Relative segment, address: CODE 00000F0A - 00000F1A (0x11 bytes), align: 0
  Segment part 1.             Intra module refs:   ?L_NEG_REW
           ENTRY                   ADDRESS         REF BY
           =====                   =======         ======
           ?L_NEG                  00000F0A        _formatted_write_P (?largewr_p)

    -------------------------------------------------------------------------
  LIBRARY MODULE, NAME : ?UL_SHR

  SEGMENTS IN THE MODULE
  ======================
RCODE
  Relative segment, address: CODE 00000F1B - 00000F1F (0x5 bytes), align: 0
  Segment part 1.             Intra module refs:   Segment part 2
           ENTRY                   ADDRESS         REF BY
           =====                   =======         ======
           ?UL_SHR                 00000F1B        UST_interval (action_manager)
                                                   rand (?rand)
    -------------------------------------------------------------------------
RCODE
  Relative segment, address: CODE 00000F20 - 00000F33 (0x14 bytes), align: 0
  Segment part 2.             Intra module refs:   ?UL_SHR

    -------------------------------------------------------------------------
  LIBRARY MODULE, NAME : ?L_ADD

  SEGMENTS IN THE MODULE
  ======================
RCODE
  Relative segment, address: CODE 00000F34 - 00000F46 (0x13 bytes), align: 0
  Segment part 1.
           ENTRY                   ADDRESS         REF BY
           =====                   =======         ======
           ?L_ADD                  00000F34        AT_time (action_manager)
                                                   UST_interval (action_manager)
                                                   _interval (action_manager)

    -------------------------------------------------------------------------
  LIBRARY MODULE, NAME : ?L_ADD_X

  SEGMENTS IN THE MODULE
  ======================
RCODE
  Relative segment, address: CODE 00000F47 - 00000F59 (0x13 bytes), align: 0
  Segment part 1.
           ENTRY                   ADDRESS         REF BY
           =====                   =======         ======
           ?L_ADD_X                00000F47        UST_delay (action_manager)

    -------------------------------------------------------------------------
  LIBRARY MODULE, NAME : ?L_ADD_C

  SEGMENTS IN THE MODULE
  ======================
RCODE
  Relative segment, address: CODE 00000F5A - 00000F70 (0x17 bytes), align: 0
  Segment part 1.
           ENTRY                   ADDRESS         REF BY
           =====                   =======         ======
           ?L_ADD_C                00000F5A        DelayCalibrate (action_manager)
                                                   mode_1_receive_process (action_manager)
                                                   mode_2_process (action_manager)
                                                   rand (?rand)

    -------------------------------------------------------------------------
  LIBRARY MODULE, NAME : ?L_ADD_TO_X

  SEGMENTS IN THE MODULE
  ======================
RCODE
  Relative segment, address: CODE 00000F71 - 00000F83 (0x13 bytes), align: 0
  Segment part 1.
           ENTRY                   ADDRESS         REF BY
           =====                   =======         ======
           ?L_ADD_TO_X             00000F71        AT_wait (action_manager)
                                                   Hot_Start (action_manager)
                                                   RI_Receive (action_manager)
                                                   RI_Send (action_manager)
                                                   RI_Send_time (action_manager)
                                                   calcCompareTime (action_manager)

    -------------------------------------------------------------------------
  LIBRARY MODULE, NAME : ?L_SUB_X

  SEGMENTS IN THE MODULE
  ======================
RCODE
  Relative segment, address: CODE 00000F84 - 00000F9B (0x18 bytes), align: 0
  Segment part 1.
           ENTRY                   ADDRESS         REF BY
           =====                   =======         ======
           ?L_SUB_X                00000F84        UST_delay (action_manager)
                                                   UST_interval (action_manager)
                                                   _interval (action_manager)
                                                   mode_1_process (action_manager)

    -------------------------------------------------------------------------
  LIBRARY MODULE, NAME : ?L_AND_C

  SEGMENTS IN THE MODULE
  ======================
RCODE
  Relative segment, address: CODE 00000F9C - 00000FB2 (0x17 bytes), align: 0
  Segment part 1.
           ENTRY                   ADDRESS         REF BY
           =====                   =======         ======
           ?L_AND_C                00000F9C        AT_time (action_manager)
                                                   calcCompareTime (action_manager)

    -------------------------------------------------------------------------
  LIBRARY MODULE, NAME : ?L_AND_TO_X

  SEGMENTS IN THE MODULE
  ======================
RCODE
  Relative segment, address: CODE 00000FB3 - 00000FC5 (0x13 bytes), align: 0
  Segment part 1.
           ENTRY                   ADDRESS         REF BY
           =====                   =======         ======
           ?L_AND_TO_X             00000FB3        AT_wait (action_manager)
                                                   calcCompareTime (action_manager)

    -------------------------------------------------------------------------
  LIBRARY MODULE, NAME : ?L_IOR_TO_X

  SEGMENTS IN THE MODULE
  ======================
RCODE
  Relative segment, address: CODE 00000FC6 - 00000FD8 (0x13 bytes), align: 0
  Segment part 1.
           ENTRY                   ADDRESS         REF BY
           =====                   =======         ======
           ?L_IOR_TO_X             00000FC6        calcCompareTime (action_manager)

    -------------------------------------------------------------------------
  LIBRARY MODULE, NAME : ?L_MOV_X

  SEGMENTS IN THE MODULE
  ======================
RCODE
  Relative segment, address: CODE 00000FD9 - 00000FE7 (0xf bytes), align: 0
  Segment part 0.
           ENTRY                   ADDRESS         REF BY
           =====                   =======         ======
           ?L_MOV_X                00000FD9        AT_set_time (action_manager)
                                                   RI_Receive (action_manager)
                                                   RI_Send (action_manager)
                                                   RI_Send_time (action_manager)
                                                   UST_delay (action_manager)
                                                   UST_interval (action_manager)
                                                   UST_time_over (action_manager)
                                                   _formatted_write_P (?largewr_p)
                                                   _interval (action_manager)
                                                   main (action_manager)
                                                   mode_1_process (action_manager)
                                                   mode_1_receive_process (action_manager)
                                                   mode_2_process (action_manager)
                                                   rand (?rand)

    -------------------------------------------------------------------------
  LIBRARY MODULE, NAME : ?L_MOV_C

  SEGMENTS IN THE MODULE
  ======================
RCODE
  Relative segment, address: CODE 00000FE8 - 00000FFA (0x13 bytes), align: 0
  Segment part 0.
           ENTRY                   ADDRESS         REF BY
           =====                   =======         ======
           ?L_MOV_C                00000FE8        AT_wait (action_manager)
                                                   DelayCalibrate (action_manager)
                                                   Hot_Start (action_manager)
                                                   RI_Receive (action_manager)
                                                   RI_Send (action_manager)
                                                   RI_Send_time (action_manager)
                                                   UST_delay (action_manager)
                                                   UST_interval (action_manager)
                                                   _formatted_write_P (?largewr_p)
                                                   _interval (action_manager)
                                                   _recv_frame (action_manager)
                                                   _send_frame (action_manager)
                                                   calcCompareTime (action_manager)
                                                   energy_scan (action_manager)
                                                   float_conversion (?largewr_p)
                                                   rand (?rand)
                                                   validate_sync (action_manager)

    -------------------------------------------------------------------------
  LIBRARY MODULE, NAME : ?L_MOV_TO_X

  SEGMENTS IN THE MODULE
  ======================
RCODE
  Relative segment, address: CODE 00000FFB - 00001009 (0xf bytes), align: 0
  Segment part 2.
           ENTRY                   ADDRESS         REF BY
           =====                   =======         ======
           ?L_MOV_TO_X             00000FFB        DelayCalibrate (action_manager)
                                                   RI_Receive (action_manager)
                                                   RI_Send (action_manager)
                                                   RI_Send_time (action_manager)
                                                   UST_delay (action_manager)
                                                   UST_interval (action_manager)
                                                   _formatted_write_P (?largewr_p)
                                                   _interval (action_manager)
                                                   calcCompareTime (action_manager)
                                                   loadTimerCompare (action_manager)
                                                   mode_2_process (action_manager)
                                                   rand (?rand)

    -------------------------------------------------------------------------
  LIBRARY MODULE, NAME : ?XLOAD_R2345

  SEGMENTS IN THE MODULE
  ======================
RCODE
  Relative segment, address: CODE 0000100A - 00001015 (0xc bytes), align: 0
  Segment part 0.
           ENTRY                   ADDRESS         REF BY
           =====                   =======         ======
           ?XLOAD_R2345            0000100A        DelayCalibrate (action_manager)
                                                   RI_Receive (action_manager)
                                                   RI_Send (action_manager)
                                                   RI_Send_time (action_manager)
                                                   ReadTimer (action_manager)
                                                   RecvData (action_manager)
                                                   UST_interval (action_manager)
                                                   UST_now (action_manager)
                                                   UST_time_over (action_manager)
                                                   _formatted_write_P (?largewr_p)
                                                   _interval (action_manager)
                                                   calcCompareTime (action_manager)

    -------------------------------------------------------------------------
  LIBRARY MODULE, NAME : ?XSTORE_R2345

  SEGMENTS IN THE MODULE
  ======================
RCODE
  Relative segment, address: CODE 00001016 - 00001021 (0xc bytes), align: 0
  Segment part 0.
           ENTRY                   ADDRESS         REF BY
           =====                   =======         ======
           ?XSTORE_R2345           00001016        DelayCalibrate (action_manager)
                                                   RI_Receive (action_manager)
                                                   RI_Send (action_manager)
                                                   RI_Send_time (action_manager)
                                                   UST_delay (action_manager)
                                                   UST_time_over (action_manager)

    -------------------------------------------------------------------------
  LIBRARY MODULE, NAME : ?XLOAD_R4567

  SEGMENTS IN THE MODULE
  ======================
RCODE
  Relative segment, address: CODE 00001022 - 0000102D (0xc bytes), align: 0
  Segment part 0.
           ENTRY                   ADDRESS         REF BY
           =====                   =======         ======
           ?XLOAD_R4567            00001022        accept_sync_data (action_manager)

    -------------------------------------------------------------------------
  LIBRARY MODULE, NAME : ?XSTORE_R4567

  SEGMENTS IN THE MODULE
  ======================
RCODE
  Relative segment, address: CODE 0000102E - 00001039 (0xc bytes), align: 0
  Segment part 0.
           ENTRY                   ADDRESS         REF BY
           =====                   =======         ======
           ?XSTORE_R4567           0000102E        accept_sync_data (action_manager)

    -------------------------------------------------------------------------
  LIBRARY MODULE, NAME : ?XLOAD_R0123

  SEGMENTS IN THE MODULE
  ======================
RCODE
  Relative segment, address: CODE 0000103A - 00001045 (0xc bytes), align: 0
  Segment part 0.
           ENTRY                   ADDRESS         REF BY
           =====                   =======         ======
           ?XLOAD_R0123            0000103A        RI_Receive (action_manager)
                                                   RI_Send (action_manager)
                                                   RI_Send_time (action_manager)
                                                   UST_delay (action_manager)
                                                   _formatted_write_P (?largewr_p)
                                                   cmd_0x02 (action_manager)
                                                   mode_1_receive_process (action_manager)
                                                   send_sync (action_manager)

    -------------------------------------------------------------------------
  LIBRARY MODULE, NAME : ?XSTORE_R0123

  SEGMENTS IN THE MODULE
  ======================
RCODE
  Relative segment, address: CODE 00001046 - 00001051 (0xc bytes), align: 0
  Segment part 0.
           ENTRY                   ADDRESS         REF BY
           =====                   =======         ======
           ?XSTORE_R0123           00001046        RI_Receive (action_manager)
                                                   RI_Send (action_manager)
                                                   RI_Send_time (action_manager)
                                                   RecvData (action_manager)
                                                   UST_delay (action_manager)
                                                   _formatted_write_P (?largewr_p)
                                                   cmd_0x02 (action_manager)
                                                   mode_1_receive_process (action_manager)
                                                   send_sync (action_manager)

    -------------------------------------------------------------------------
  LIBRARY MODULE, NAME : ?MOVE_LONG8_XDATA_IDATA

  SEGMENTS IN THE MODULE
  ======================
RCODE
  Relative segment, address: CODE 00001052 - 0000105E (0xd bytes), align: 0
  Segment part 0.
           ENTRY                   ADDRESS         REF BY
           =====                   =======         ======
           ?MOVE_LONG8_XDATA_IDATA
                                   00001052        ?PUSH_XSTACK_I (?PUSH_XSTACK_I)

    -------------------------------------------------------------------------
  LIBRARY MODULE, NAME : ?MOVE_LONG8_XDATA_XDATA

  SEGMENTS IN THE MODULE
  ======================
RCODE
  Relative segment, address: CODE 0000105F - 0000107F (0x21 bytes), align: 0
  Segment part 0.
           ENTRY                   ADDRESS         REF BY
           =====                   =======         ======
           ?MOVE_LONG8_XDATA_XDATA
                                   0000105F        ?PUSH_XSTACK8_X (?PUSH_XSTACK8_X)

    -------------------------------------------------------------------------
  LIBRARY MODULE, NAME : ?MOVE_LONG8_XDATA_CODE

  SEGMENTS IN THE MODULE
  ======================
RCODE
  Relative segment, address: CODE 00001080 - 000010A1 (0x22 bytes), align: 0
  Segment part 0.
           ENTRY                   ADDRESS         REF BY
           =====                   =======         ======
           ?MOVE_LONG8_XDATA_CODE
                                   00001080        HW_Init (action_manager)
                                                   SL_alloc (action_manager)
                                                   SW_Init (action_manager)
                                                   _formatted_write_P (?largewr_p)
                                                   cmd_0x0B (action_manager)

    -------------------------------------------------------------------------
  LIBRARY MODULE, NAME : ?SETJMP_XDATA

  SEGMENTS IN THE MODULE
  ======================
RCODE
  Relative segment, address: CODE 000010A2 - 000010EF (0x4e bytes), align: 0
  Segment part 0.
           ENTRY                   ADDRESS         REF BY
           =====                   =======         ======
           ?SETJMP_XDATA           000010A2        RecvData (action_manager)
                                                   SendData (action_manager)
                                                   recv_sync (action_manager)

    -------------------------------------------------------------------------
  LIBRARY MODULE, NAME : ?LONGJMP_XDATA

  SEGMENTS IN THE MODULE
  ======================
RCODE
  Relative segment, address: CODE 000010F0 - 00001143 (0x54 bytes), align: 0
  Segment part 0.
           ENTRY                   ADDRESS         REF BY
           =====                   =======         ======
           ?LONGJMP_XDATA          000010F0        RecvData (action_manager)
                                                   SendData (action_manager)
                                                   recv_sync (action_manager)

    -------------------------------------------------------------------------
  LIBRARY MODULE, NAME : ?S_DIV_MOD

  SEGMENTS IN THE MODULE
  ======================
RCODE
  Relative segment, address: CODE 00001144 - 00001184 (0x41 bytes), align: 0
  Segment part 0.
           ENTRY                   ADDRESS         REF BY
           =====                   =======         ======
           ?S_DIV_MOD              0000117D        _throw_dice (action_manager)
                                                   float_conversion (?largewr_p)
    -------------------------------------------------------------------------
RCODE
  Relative segment, address: CODE 00001185 - 000011DD (0x59 bytes), align: 0
  Segment part 1.             Intra module refs:   ?S_DIV_MOD
           ENTRY                   ADDRESS         REF BY
           =====                   =======         ======
           ?US_DIV_MOD             00001185        TM_IRQ (action_manager)
                                                   scheulder_next_alarm (action_manager)

    -------------------------------------------------------------------------
  LIBRARY MODULE, NAME : ?ALLOC_XSTACK8

  SEGMENTS IN THE MODULE
  ======================
RCODE
  Relative segment, address: CODE 000011DE - 000011F3 (0x16 bytes), align: 0
  Segment part 0.
           ENTRY                   ADDRESS         REF BY
           =====                   =======         ======
           ?ALLOC_XSTACK8          000011DE        AES_StreamCoder (action_manager)
                                                   DelayCalibrate (action_manager)
                                                   FR_add_header (action_manager)
                                                   HW_Init (action_manager)
                                                   RI_Receive (action_manager)
                                                   RI_Send (action_manager)
                                                   RI_Send_time (action_manager)
                                                   RecvData (action_manager)
                                                   SL_alloc (action_manager)
                                                   SW_Init (action_manager)
                                                   SendData (action_manager)
                                                   UST_delay (action_manager)
                                                   UST_interval (action_manager)
                                                   UST_now (action_manager)
                                                   UST_time_over (action_manager)
                                                   _formatted_write_P (?largewr_p)
                                                   _interval (action_manager)
                                                   _send_ack (action_manager)
                                                   calcCompareTime (action_manager)
                                                   cmd_0x00 (action_manager)
                                                   cmd_0x09 (action_manager)
                                                   cmd_0x0A (action_manager)
                                                   cmd_0x0B (action_manager)
                                                   cmd_0x0D (action_manager)
                                                   cmd_answer (action_manager)
                                                   cmd_answer_err (action_manager)
                                                   energy_scan (action_manager)
                                                   float_conversion (?largewr_p)
                                                   loadTimerCompare (action_manager)
                                                   parse_uart_stream (action_manager)
                                                   printf_P (?printf_p)
                                                   recv_sync (action_manager)
                                                   send_sync (action_manager)
                                                   setFreq (action_manager)
                                                   stream_write (action_manager)

    -------------------------------------------------------------------------
  LIBRARY MODULE, NAME : ?DEALLOC_XSTACK8

  SEGMENTS IN THE MODULE
  ======================
RCODE
  Relative segment, address: CODE 000011F4 - 0000120E (0x1b bytes), align: 0
  Segment part 0.
           ENTRY                   ADDRESS         REF BY
           =====                   =======         ======
           ?DEALLOC_XSTACK8        000011F4        AES_StreamCoder (action_manager)
                                                   AM_Callback (action_manager)
                                                   AM_Cold_start (action_manager)
                                                   AM_HW_Init (action_manager)
                                                   AM_Hot_start (action_manager)
                                                   AM_IRQ_Init (action_manager)
                                                   AM_SW_Init (action_manager)
                                                   AT_set_alarm (action_manager)
                                                   AT_set_time (action_manager)
                                                   AT_wait (action_manager)
                                                   DelayCalibrate (action_manager)
                                                   FR_add_header (action_manager)
                                                   HW_Init (action_manager)
                                                   Hot_Start (action_manager)
                                                   LLC_add_tx_frame (action_manager)
                                                   LLC_close_slot (action_manager)
                                                   LLC_open_slot (action_manager)
                                                   MAC_Receive (action_manager)
                                                   Neocore_start (action_manager)
                                                   RI_Receive (action_manager)
                                                   RI_Send (action_manager)
                                                   RI_Send_time (action_manager)
                                                   RecvData (action_manager)
                                                   SL_alloc (action_manager)
                                                   SW_Init (action_manager)
                                                   Segment part 20 (?largewr_p)
                                                   SendData (action_manager)
                                                   TM_ClrAlarm (action_manager)
                                                   TM_SetAlarm (action_manager)
                                                   UST_delay (action_manager)
                                                   UST_interval (action_manager)
                                                   UST_now (action_manager)
                                                   UST_time_over (action_manager)
                                                   _formatted_write_P (?largewr_p)
                                                   _interval (action_manager)
                                                   _recv_frame (action_manager)
                                                   _send_ack (action_manager)
                                                   _send_frame (action_manager)
                                                   calcCompareTime (action_manager)
                                                   cmd_0x00 (action_manager)
                                                   cmd_0x01 (action_manager)
                                                   cmd_0x03 (action_manager)
                                                   cmd_0x04 (action_manager)
                                                   cmd_0x05 (action_manager)
                                                   cmd_0x06 (action_manager)
                                                   cmd_0x07 (action_manager)
                                                   cmd_0x08 (action_manager)
                                                   cmd_0x09 (action_manager)
                                                   cmd_0x0A (action_manager)
                                                   cmd_0x0B (action_manager)
                                                   cmd_0x0C (action_manager)
                                                   cmd_0x0D (action_manager)
                                                   cmd_0x0E (action_manager)
                                                   cmd_0x0F (action_manager)
                                                   cmd_0x10 (action_manager)
                                                   cmd_0x11 (action_manager)
                                                   cmd_answer (action_manager)
                                                   cmd_answer_err (action_manager)
                                                   energy_scan (action_manager)
                                                   loadTimerCompare (action_manager)
                                                   main (action_manager)
                                                   mode_1_process (action_manager)
                                                   mode_1_receive_process (action_manager)
                                                   pre_init (action_manager)
                                                   printf_P (?printf_p)
                                                   recv_sync (action_manager)
                                                   scheduler_rx (action_manager)
                                                   scheduler_tx (action_manager)
                                                   send_sync (action_manager)
                                                   setFreq (action_manager)
                                                   stream_write (action_manager)
                                                   syncronize_timer (action_manager)
                                                   transmite (action_manager)

    -------------------------------------------------------------------------
  LIBRARY MODULE, NAME : ?ADD_XSTACK_DISP8

  SEGMENTS IN THE MODULE
  ======================
RCODE
  Relative segment, address: CODE 0000120F - 00001229 (0x1b bytes), align: 0
  Segment part 1.
           ENTRY                   ADDRESS         REF BY
           =====                   =======         ======
           ?ADD_XSTACK_DISP0_8     0000120F        ?PUSH_XSTACK_I (?PUSH_XSTACK_I)

    -------------------------------------------------------------------------
  LIBRARY MODULE, NAME : ?XSTACK_DISP8

  SEGMENTS IN THE MODULE
  ======================
RCODE
  Relative segment, address: CODE 0000122A - 00001233 (0xa bytes), align: 0
  Segment part 1.
           ENTRY                   ADDRESS         REF BY
           =====                   =======         ======
           ?XSTACK_DISP0_8         0000122A        AES_StreamCoder (action_manager)
                                                   DelayCalibrate (action_manager)
                                                   FR_add_header (action_manager)
                                                   HW_Init (action_manager)
                                                   RI_Measure_POW (action_manager)
                                                   RI_Receive (action_manager)
                                                   RI_Send (action_manager)
                                                   RI_Send_time (action_manager)
                                                   RecvData (action_manager)
                                                   UST_delay (action_manager)
                                                   UST_interval (action_manager)
                                                   UST_now (action_manager)
                                                   UST_time_over (action_manager)
                                                   _formatted_write_P (?largewr_p)
                                                   _interval (action_manager)
                                                   calcCompareTime (action_manager)
                                                   cmd_0x0B (action_manager)
                                                   cmd_answer (action_manager)
                                                   cmd_answer_err (action_manager)
                                                   float_conversion (?largewr_p)
                                                   loadTimerCompare (action_manager)
                                                   memcpy (?memcpy)
                                                   send_sync (action_manager)
                                                   stream_write (action_manager)

    -------------------------------------------------------------------------
  LIBRARY MODULE, NAME : ?XSTACK_DISP8_RP

  SEGMENTS IN THE MODULE
  ======================
RCODE
  Relative segment, address: CODE 00001234 - 0000123B (0x8 bytes), align: 0
  Segment part 0.
           ENTRY                   ADDRESS         REF BY
           =====                   =======         ======
           ?XSTACK_DISP100_8       00001234        HW_Init (action_manager)
                                                   RI_Receive (action_manager)
                                                   _formatted_write_P (?largewr_p)
                                                   printf_P (?printf_p)
    -------------------------------------------------------------------------
RCODE
  Relative segment, address: CODE 0000123C - 00001243 (0x8 bytes), align: 0
  Segment part 1.
           ENTRY                   ADDRESS         REF BY
           =====                   =======         ======
           ?XSTACK_DISP101_8       0000123C        AES_StreamCoder (action_manager)
                                                   HW_Init (action_manager)
                                                   cmd_0x0B (action_manager)
                                                   stream_write (action_manager)
    -------------------------------------------------------------------------
RCODE
  Relative segment, address: CODE 00001244 - 0000124B (0x8 bytes), align: 0
  Segment part 2.
           ENTRY                   ADDRESS         REF BY
           =====                   =======         ======
           ?XSTACK_DISP102_8       00001244        AES_StreamCoder (action_manager)
                                                   HW_Init (action_manager)
                                                   _formatted_write_P (?largewr_p)
                                                   cmd_0x0B (action_manager)

    -------------------------------------------------------------------------
  LIBRARY MODULE, NAME : ?CALL_IND

  SEGMENTS IN THE MODULE
  ======================
RCODE
  Relative segment, address: CODE 0000124C - 0000124D (0x2 bytes), align: 0
  Segment part 0.
           ENTRY                   ADDRESS         REF BY
           =====                   =======         ======
           ?CALL_IND               0000124C        AM_Callback (action_manager)
                                                   AM_Cold_start (action_manager)
                                                   AM_HW_Init (action_manager)
                                                   AM_Hot_start (action_manager)
                                                   AM_IRQ_Init (action_manager)
                                                   AM_SW_Init (action_manager)
                                                   _formatted_write_P (?largewr_p)
                                                   parse_uart_stream (action_manager)

    -------------------------------------------------------------------------
  LIBRARY MODULE, NAME : ?BANKED_ENTER_XDATA

  SEGMENTS IN THE MODULE
  ======================
RCODE
  Relative segment, address: CODE 0000124E - 000012B9 (0x6c bytes), align: 0
  Segment part 1.
           ENTRY                   ADDRESS         REF BY
           =====                   =======         ======
           ?BANKED_ENTER_XDATA     0000124E        AES_StreamCoder (action_manager)
                                                   AM_Callback (action_manager)
                                                   AM_Cold_start (action_manager)
                                                   AM_HW_Init (action_manager)
                                                   AM_Hot_start (action_manager)
                                                   AM_IRQ_Init (action_manager)
                                                   AM_SW_Init (action_manager)
                                                   AT_enable (action_manager)
                                                   AT_set_alarm (action_manager)
                                                   AT_set_time (action_manager)
                                                   AT_time (action_manager)
                                                   AT_wait (action_manager)
                                                   DelayCalibrate (action_manager)
                                                   FR_add_header (action_manager)
                                                   FR_delete (action_manager)
                                                   FR_find_rx (action_manager)
                                                   FR_find_tx (action_manager)
                                                   FR_set_rx (action_manager)
                                                   FR_set_tx (action_manager)
                                                   Hot_Start (action_manager)
                                                   LLC_add_tx_frame (action_manager)
                                                   LLC_close_slot (action_manager)
                                                   LLC_open_slot (action_manager)
                                                   MAC_Receive (action_manager)
                                                   MAC_Send (action_manager)
                                                   Neocore_start (action_manager)
                                                   RI_Measure_POW (action_manager)
                                                   RI_Receive (action_manager)
                                                   RI_Send (action_manager)
                                                   RI_Send_time (action_manager)
                                                   RecvData (action_manager)
                                                   SL_alloc (action_manager)
                                                   SL_free (action_manager)
                                                   SL_set_rx (action_manager)
                                                   SL_set_tx (action_manager)
                                                   SW_Init (action_manager)
                                                   SendData (action_manager)
                                                   TM_ClrAlarm (action_manager)
                                                   TM_IRQ (action_manager)
                                                   TM_SetAlarm (action_manager)
                                                   UST_delay (action_manager)
                                                   UST_interval (action_manager)
                                                   UST_time_over (action_manager)
                                                   _find_next_active (action_manager)
                                                   _formatted_write_P (?largewr_p)
                                                   _interval (action_manager)
                                                   _recv_frame (action_manager)
                                                   _send_ack (action_manager)
                                                   _send_frame (action_manager)
                                                   _throw_dice (action_manager)
                                                   accept_sync_data (action_manager)
                                                   calcCompareTime (action_manager)
                                                   cmd_0x00 (action_manager)
                                                   cmd_0x01 (action_manager)
                                                   cmd_0x02 (action_manager)
                                                   cmd_0x03 (action_manager)
                                                   cmd_0x04 (action_manager)
                                                   cmd_0x05 (action_manager)
                                                   cmd_0x06 (action_manager)
                                                   cmd_0x07 (action_manager)
                                                   cmd_0x08 (action_manager)
                                                   cmd_0x09 (action_manager)
                                                   cmd_0x0A (action_manager)
                                                   cmd_0x0B (action_manager)
                                                   cmd_0x0C (action_manager)
                                                   cmd_0x0D (action_manager)
                                                   cmd_0x0E (action_manager)
                                                   cmd_0x0F (action_manager)
                                                   cmd_0x10 (action_manager)
                                                   cmd_0x11 (action_manager)
                                                   cmd_answer (action_manager)
                                                   cmd_answer_err (action_manager)
                                                   com_uart_init (action_manager)
                                                   crc16 (action_manager)
                                                   energy_scan (action_manager)
                                                   float_conversion (?largewr_p)
                                                   loadTimerCompare (action_manager)
                                                   mem_move (action_manager)
                                                   memcpy (?memcpy)
                                                   mode_1_process (action_manager)
                                                   mode_1_receive_process (action_manager)
                                                   mode_2_process (action_manager)
                                                   parse_uart_stream (action_manager)
                                                   pre_init (action_manager)
                                                   printf_P (?printf_p)
                                                   rand (?rand)
                                                   random_core_init (action_manager)
                                                   readRandom (action_manager)
                                                   receive (action_manager)
                                                   recv_sync (action_manager)
                                                   scheduler_rx (action_manager)
                                                   scheduler_tx (action_manager)
                                                   scheulder_next_alarm (action_manager)
                                                   send_sync (action_manager)
                                                   setFreq (action_manager)
                                                   stream_write (action_manager)
                                                   syncronize_timer (action_manager)
                                                   transmite (action_manager)
                                                   uart_write (action_manager)
                                                   upload_frame (action_manager)
                                                   validate_sync (action_manager)
                                                   xor_calc (action_manager)

    -------------------------------------------------------------------------
  LIBRARY MODULE, NAME : ?BANKED_LEAVE_XDATA

  SEGMENTS IN THE MODULE
  ======================
RCODE
  Relative segment, address: CODE 000012BA - 000012FF (0x46 bytes), align: 0
  Segment part 1.
           ENTRY                   ADDRESS         REF BY
           =====                   =======         ======
           ?BANKED_LEAVE_XDATA     000012BA        AES_StreamCoder (action_manager)
                                                   AM_Callback (action_manager)
                                                   AM_Cold_start (action_manager)
                                                   AM_HW_Init (action_manager)
                                                   AM_Hot_start (action_manager)
                                                   AM_IRQ_Init (action_manager)
                                                   AM_SW_Init (action_manager)
                                                   AT_enable (action_manager)
                                                   AT_set_alarm (action_manager)
                                                   AT_set_time (action_manager)
                                                   AT_time (action_manager)
                                                   AT_wait (action_manager)
                                                   DelayCalibrate (action_manager)
                                                   FR_add_header (action_manager)
                                                   FR_delete (action_manager)
                                                   FR_find_rx (action_manager)
                                                   FR_find_tx (action_manager)
                                                   FR_set_rx (action_manager)
                                                   FR_set_tx (action_manager)
                                                   Hot_Start (action_manager)
                                                   LLC_add_tx_frame (action_manager)
                                                   LLC_close_slot (action_manager)
                                                   LLC_open_slot (action_manager)
                                                   MAC_Receive (action_manager)
                                                   MAC_Send (action_manager)
                                                   Neocore_start (action_manager)
                                                   RI_Measure_POW (action_manager)
                                                   RI_Receive (action_manager)
                                                   RI_Send (action_manager)
                                                   RI_Send_time (action_manager)
                                                   RecvData (action_manager)
                                                   SL_alloc (action_manager)
                                                   SL_free (action_manager)
                                                   SL_set_rx (action_manager)
                                                   SL_set_tx (action_manager)
                                                   SW_Init (action_manager)
                                                   Segment part 20 (?largewr_p)
                                                   SendData (action_manager)
                                                   TM_ClrAlarm (action_manager)
                                                   TM_IRQ (action_manager)
                                                   TM_SetAlarm (action_manager)
                                                   UST_delay (action_manager)
                                                   UST_interval (action_manager)
                                                   UST_time_over (action_manager)
                                                   _find_next_active (action_manager)
                                                   _interval (action_manager)
                                                   _recv_frame (action_manager)
                                                   _send_ack (action_manager)
                                                   _send_frame (action_manager)
                                                   _throw_dice (action_manager)
                                                   accept_sync_data (action_manager)
                                                   calcCompareTime (action_manager)
                                                   cmd_0x00 (action_manager)
                                                   cmd_0x01 (action_manager)
                                                   cmd_0x02 (action_manager)
                                                   cmd_0x03 (action_manager)
                                                   cmd_0x04 (action_manager)
                                                   cmd_0x05 (action_manager)
                                                   cmd_0x06 (action_manager)
                                                   cmd_0x07 (action_manager)
                                                   cmd_0x08 (action_manager)
                                                   cmd_0x09 (action_manager)
                                                   cmd_0x0A (action_manager)
                                                   cmd_0x0B (action_manager)
                                                   cmd_0x0C (action_manager)
                                                   cmd_0x0D (action_manager)
                                                   cmd_0x0E (action_manager)
                                                   cmd_0x0F (action_manager)
                                                   cmd_0x10 (action_manager)
                                                   cmd_0x11 (action_manager)
                                                   cmd_answer (action_manager)
                                                   cmd_answer_err (action_manager)
                                                   com_uart_init (action_manager)
                                                   crc16 (action_manager)
                                                   energy_scan (action_manager)
                                                   loadTimerCompare (action_manager)
                                                   mem_move (action_manager)
                                                   memcpy (?memcpy)
                                                   mode_1_process (action_manager)
                                                   mode_1_receive_process (action_manager)
                                                   mode_2_process (action_manager)
                                                   pre_init (action_manager)
                                                   printf_P (?printf_p)
                                                   rand (?rand)
                                                   random_core_init (action_manager)
                                                   readRandom (action_manager)
                                                   receive (action_manager)
                                                   recv_sync (action_manager)
                                                   scheduler_rx (action_manager)
                                                   scheduler_tx (action_manager)
                                                   scheulder_next_alarm (action_manager)
                                                   send_sync (action_manager)
                                                   setFreq (action_manager)
                                                   stream_write (action_manager)
                                                   syncronize_timer (action_manager)
                                                   transmite (action_manager)
                                                   uart_write (action_manager)
                                                   upload_frame (action_manager)
                                                   validate_sync (action_manager)
                                                   xor_calc (action_manager)

    -------------------------------------------------------------------------
  LIBRARY MODULE, NAME : ?INTERRUPT_ENTER_XSP

  SEGMENTS IN THE MODULE
  ======================
RCODE
  Relative segment, address: CODE 00001300 - 0000135E (0x5f bytes), align: 0
  Segment part 1.
           ENTRY                   ADDRESS         REF BY
           =====                   =======         ======
           ?INTERRUPT_ENTER_XSP    00001300        TimerCompareInterrupt (action_manager)

    -------------------------------------------------------------------------
  LIBRARY MODULE, NAME : ?INTERRUPT_LEAVE_XSP

  SEGMENTS IN THE MODULE
  ======================
RCODE
  Relative segment, address: CODE 0000135F - 000013B6 (0x58 bytes), align: 0
  Segment part 1.
           ENTRY                   ADDRESS         REF BY
           =====                   =======         ======
           ?INTERRUPT_LEAVE_XSP    0000135F        TimerCompareInterrupt (action_manager)

    -------------------------------------------------------------------------
  LIBRARY MODULE, NAME : ?PUSH_XSTACK_I

  SEGMENTS IN THE MODULE
  ======================
RCODE
  Relative segment, address: CODE 000013B7 - 000013BA (0x4 bytes), align: 0
  Segment part 0.
           ENTRY                   ADDRESS         REF BY
           =====                   =======         ======
           ?PUSH_XSTACK_I_FOUR     000013B7        DelayCalibrate (action_manager)
                                                   RecvData (action_manager)
    -------------------------------------------------------------------------
RCODE
  Relative segment, address: CODE 000013BB - 000013BE (0x4 bytes), align: 0
  Segment part 2.
           ENTRY                   ADDRESS         REF BY
           =====                   =======         ======
           ?PUSH_XSTACK_I_TWO      000013BB        AES_StreamCoder (action_manager)
                                                   AM_Callback (action_manager)
                                                   AM_Cold_start (action_manager)
                                                   AM_HW_Init (action_manager)
                                                   AM_Hot_start (action_manager)
                                                   AM_IRQ_Init (action_manager)
                                                   AM_SW_Init (action_manager)
                                                   AT_set_alarm (action_manager)
                                                   AT_set_time (action_manager)
                                                   AT_wait (action_manager)
                                                   Hot_Start (action_manager)
                                                   LLC_add_tx_frame (action_manager)
                                                   LLC_close_slot (action_manager)
                                                   LLC_open_slot (action_manager)
                                                   MAC_Receive (action_manager)
                                                   Neocore_start (action_manager)
                                                   RI_Receive (action_manager)
                                                   RI_Send (action_manager)
                                                   RI_Send_time (action_manager)
                                                   TM_ClrAlarm (action_manager)
                                                   TM_SetAlarm (action_manager)
                                                   _formatted_write_P (?largewr_p)
                                                   _recv_frame (action_manager)
                                                   _send_frame (action_manager)
                                                   cmd_0x00 (action_manager)
                                                   cmd_0x01 (action_manager)
                                                   cmd_0x03 (action_manager)
                                                   cmd_0x04 (action_manager)
                                                   cmd_0x05 (action_manager)
                                                   cmd_0x06 (action_manager)
                                                   cmd_0x07 (action_manager)
                                                   cmd_0x08 (action_manager)
                                                   cmd_0x0B (action_manager)
                                                   cmd_0x0C (action_manager)
                                                   cmd_0x0D (action_manager)
                                                   cmd_0x0E (action_manager)
                                                   cmd_0x0F (action_manager)
                                                   cmd_0x10 (action_manager)
                                                   cmd_0x11 (action_manager)
                                                   energy_scan (action_manager)
                                                   main (action_manager)
                                                   mode_1_process (action_manager)
                                                   mode_1_receive_process (action_manager)
                                                   pre_init (action_manager)
                                                   printf_P (?printf_p)
                                                   recv_sync (action_manager)
                                                   scheduler_rx (action_manager)
                                                   scheduler_tx (action_manager)
                                                   send_sync (action_manager)
                                                   setFreq (action_manager)
                                                   stream_write (action_manager)
                                                   syncronize_timer (action_manager)
                                                   transmite (action_manager)
    -------------------------------------------------------------------------
RCODE
  Relative segment, address: CODE 000013BF - 000013C0 (0x2 bytes), align: 0
  Segment part 3.
           ENTRY                   ADDRESS         REF BY
           =====                   =======         ======
           ?PUSH_XSTACK_I_ONE      000013BF        _formatted_write_P (?largewr_p)
    -------------------------------------------------------------------------
RCODE
  Relative segment, address: CODE 000013C1 - 000013CD (0xd bytes), align: 0
  Segment part 4.             Intra module refs:   ?PUSH_XSTACK_I_FOUR
                                                   ?PUSH_XSTACK_I_ONE
                                                   ?PUSH_XSTACK_I_TWO
           ENTRY                   ADDRESS         REF BY
           =====                   =======         ======
           ?PUSH_XSTACK_I          000013C1 

    -------------------------------------------------------------------------
  LIBRARY MODULE, NAME : ?PUSH_XSTACK8_X

  SEGMENTS IN THE MODULE
  ======================
RCODE
  Relative segment, address: CODE 000013CE - 000013D1 (0x4 bytes), align: 0
  Segment part 1.
           ENTRY                   ADDRESS         REF BY
           =====                   =======         ======
           ?PUSH_XSTACK8_X_FOUR    000013CE        RI_Receive (action_manager)
                                                   RI_Send (action_manager)
                                                   RI_Send_time (action_manager)
                                                   UST_time_over (action_manager)
                                                   main (action_manager)
    -------------------------------------------------------------------------
RCODE
  Relative segment, address: CODE 000013D2 - 000013D5 (0x4 bytes), align: 0
  Segment part 3.
           ENTRY                   ADDRESS         REF BY
           =====                   =======         ======
           ?PUSH_XSTACK8_X_TWO     000013D2        _formatted_write_P (?largewr_p)
                                                   syncronize_timer (action_manager)
    -------------------------------------------------------------------------
RCODE
  Relative segment, address: CODE 000013D6 - 000013FE (0x29 bytes), align: 0
  Segment part 5.             Intra module refs:   ?PUSH_XSTACK8_X_FOUR
                                                   ?PUSH_XSTACK8_X_TWO
           ENTRY                   ADDRESS         REF BY
           =====                   =======         ======
           ?PUSH_XSTACK8_X         000013D6 

    -------------------------------------------------------------------------
  LIBRARY MODULE, NAME : ?US_SWITCH_DENSE

  SEGMENTS IN THE MODULE
  ======================
RCODE
  Relative segment, address: CODE 000013FF - 00001405 (0x7 bytes), align: 0
  Segment part 0.
           ENTRY                   ADDRESS         REF BY
           =====                   =======         ======
           ?US_SWITCH_DENSE        000013FF        RecvData (action_manager)
                                                   SendData (action_manager)
                                                   recv_sync (action_manager)
                                                   transmite (action_manager)
           ?US_SD_CFI_INV_BEGINS   000013FF 
    -------------------------------------------------------------------------
RCODE
  Relative segment, address: CODE 00001406 - 00001443 (0x3e bytes), align: 0
  Segment part 2.             Intra module refs:   Segment part 0
    -------------------------------------------------------------------------
RCODE
  Relative segment, address: CODE 00001444 - 00001444 (0x1 bytes), align: 0
  Segment part 4.             Intra module refs:   Segment part 0
           ENTRY                   ADDRESS         REF BY
           =====                   =======         ======
           ?US_SD_CFI_INV_ENDS     00001445 

    -------------------------------------------------------------------------
  LIBRARY MODULE, NAME : ?largewr_p

  SEGMENTS IN THE MODULE
  ======================
<BANKED_CODE> 1 (was BANKED_CODE)
  Relative segment, address: CODE 00005DC1 - 00006256 (0x496 bytes), align: 0
  Segment part 18.            Intra module refs:   float_conversion::?relay
           LOCAL                   ADDRESS         
           =====                   =======         
           float_conversion        00005DC1 
               XSTACK = 00000077 ( 00000013 )
               ISTACK = 00000000 ( 00000002 )
    -------------------------------------------------------------------------
<BANKED_CODE> 1 (was BANKED_CODE)
  Relative segment, address: CODE 00006257 - 0000625E (0x8 bytes), align: 0
  Segment part 20.            Intra module refs:   _formatted_write_P
                                                   float_conversion
    -------------------------------------------------------------------------
<BANKED_CODE> 1 (was BANKED_CODE)
  Relative segment, address: CODE 0000625F - 0000626B (0xd bytes), align: 0
  Segment part 21.            Intra module refs:   float_conversion
    -------------------------------------------------------------------------
<BANKED_CODE> 1 (was BANKED_CODE)
  Relative segment, address: CODE 0000626C - 00006274 (0x9 bytes), align: 0
  Segment part 22.            Intra module refs:   float_conversion
    -------------------------------------------------------------------------
<BANKED_CODE> 1 (was BANKED_CODE)
  Relative segment, address: CODE 00006275 - 0000627B (0x7 bytes), align: 0
  Segment part 23.            Intra module refs:   float_conversion
    -------------------------------------------------------------------------
<BANKED_CODE> 1 (was BANKED_CODE)
  Relative segment, address: CODE 0000627C - 00006283 (0x8 bytes), align: 0
  Segment part 24.            Intra module refs:   float_conversion
    -------------------------------------------------------------------------
<BANKED_CODE> 1 (was BANKED_CODE)
  Relative segment, address: CODE 00006284 - 0000628F (0xc bytes), align: 0
  Segment part 25.            Intra module refs:   float_conversion
    -------------------------------------------------------------------------
<BANKED_CODE> 1 (was BANKED_CODE)
  Relative segment, address: CODE 00006290 - 0000629B (0xc bytes), align: 0
  Segment part 26.            Intra module refs:   float_conversion
    -------------------------------------------------------------------------
<BANKED_CODE> 1 (was BANKED_CODE)
  Relative segment, address: CODE 0000629C - 000062A1 (0x6 bytes), align: 0
  Segment part 27.            Intra module refs:   float_conversion
    -------------------------------------------------------------------------
<BANKED_CODE> 1 (was BANKED_CODE)
  Relative segment, address: CODE 000062A2 - 000062A8 (0x7 bytes), align: 0
  Segment part 28.            Intra module refs:   Segment part 27
                                                   _formatted_write_P
    -------------------------------------------------------------------------
<BANKED_CODE> 1 (was BANKED_CODE)
  Relative segment, address: CODE 000062A9 - 000062AC (0x4 bytes), align: 0
  Segment part 29.            Intra module refs:   _formatted_write_P
    -------------------------------------------------------------------------
<BANKED_CODE> 1 (was BANKED_CODE)
  Relative segment, address: CODE 000062AD - 000062AD (0x1 bytes), align: 0
  Segment part 30.            Intra module refs:   Segment part 29
                                                   _formatted_write_P
                                                   float_conversion
    -------------------------------------------------------------------------
<BANKED_CODE> 1 (was BANKED_CODE)
  Relative segment, address: CODE 000062AE - 000062B3 (0x6 bytes), align: 0
  Segment part 31.            Intra module refs:   Segment part 30
                                                   _formatted_write_P
                                                   float_conversion
    -------------------------------------------------------------------------
<BANKED_CODE> 1 (was BANKED_CODE)
  Relative segment, address: CODE 000062B4 - 000062B9 (0x6 bytes), align: 0
  Segment part 32.            Intra module refs:   Segment part 31
                                                   _formatted_write_P
    -------------------------------------------------------------------------
<BANKED_CODE> 1 (was BANKED_CODE)
  Relative segment, address: CODE 000062BA - 000062BF (0x6 bytes), align: 0
  Segment part 33.            Intra module refs:   float_conversion
    -------------------------------------------------------------------------
<BANKED_CODE> 1 (was BANKED_CODE)
  Relative segment, address: CODE 000062C0 - 000062C6 (0x7 bytes), align: 0
  Segment part 34.            Intra module refs:   Segment part 33
                                                   float_conversion
    -------------------------------------------------------------------------
<BANKED_CODE> 1 (was BANKED_CODE)
  Relative segment, address: CODE 000062C7 - 000062C9 (0x3 bytes), align: 0
  Segment part 35.            Intra module refs:   float_conversion
    -------------------------------------------------------------------------
<BANKED_CODE> 1 (was BANKED_CODE)
  Relative segment, address: CODE 000062CA - 000062D0 (0x7 bytes), align: 0
  Segment part 36.            Intra module refs:   Segment part 35
                                                   float_conversion
    -------------------------------------------------------------------------
<BANKED_CODE> 1 (was BANKED_CODE)
  Relative segment, address: CODE 000062D1 - 00006C59 (0x989 bytes), align: 0
  Segment part 37.            Intra module refs:   _formatted_write_P::?relay
           ENTRY                   ADDRESS         REF BY
           =====                   =======         ======
           _formatted_write_P      000062D1 
               calls direct
               XSTACK = 00000004 ( 00000077 )
               ISTACK = 00000000 ( 00000002 )
    -------------------------------------------------------------------------
<BANKED_CODE> 1 (was BANKED_CODE)
  Relative segment, address: CODE 00006C5A - 00006C60 (0x7 bytes), align: 0
  Segment part 39.            Intra module refs:   _formatted_write_P
    -------------------------------------------------------------------------
<BANKED_CODE> 1 (was BANKED_CODE)
  Relative segment, address: CODE 00006C61 - 00006C6A (0xa bytes), align: 0
  Segment part 40.            Intra module refs:   _formatted_write_P
    -------------------------------------------------------------------------
<BANKED_CODE> 1 (was BANKED_CODE)
  Relative segment, address: CODE 00006C6B - 00006C74 (0xa bytes), align: 0
  Segment part 41.            Intra module refs:   _formatted_write_P
    -------------------------------------------------------------------------
<BANKED_CODE> 1 (was BANKED_CODE)
  Relative segment, address: CODE 00006C75 - 00006C76 (0x2 bytes), align: 0
  Segment part 42.            Intra module refs:   _formatted_write_P
    -------------------------------------------------------------------------
<BANKED_CODE> 1 (was BANKED_CODE)
  Relative segment, address: CODE 00006C77 - 00006C7A (0x4 bytes), align: 0
  Segment part 43.            Intra module refs:   Segment part 42
                                                   _formatted_write_P
                                                   float_conversion
    -------------------------------------------------------------------------
<BANKED_CODE> 1 (was BANKED_CODE)
  Relative segment, address: CODE 00006C7B - 00006C82 (0x8 bytes), align: 0
  Segment part 44.            Intra module refs:   Segment part 28
                                                   Segment part 43
                                                   Segment part 45
    -------------------------------------------------------------------------
<BANKED_CODE> 1 (was BANKED_CODE)
  Relative segment, address: CODE 00006C83 - 00006C93 (0x11 bytes), align: 0
  Segment part 45.            Intra module refs:   _formatted_write_P
    -------------------------------------------------------------------------
<BANKED_CODE> 1 (was BANKED_CODE)
  Relative segment, address: CODE 00006C94 - 00006CA1 (0xe bytes), align: 0
  Segment part 46.            Intra module refs:   _formatted_write_P
    -------------------------------------------------------------------------
<BANKED_CODE> 1 (was BANKED_CODE)
  Relative segment, address: CODE 00006CA2 - 00006CA5 (0x4 bytes), align: 0
  Segment part 47.            Intra module refs:   _formatted_write_P
                                                   float_conversion
    -------------------------------------------------------------------------
<BANKED_CODE> 1 (was BANKED_CODE)
  Relative segment, address: CODE 00006CA6 - 00006CA9 (0x4 bytes), align: 0
  Segment part 48.            Intra module refs:   _formatted_write_P
    -------------------------------------------------------------------------
<BANKED_CODE> 1 (was BANKED_CODE)
  Relative segment, address: CODE 00006CAA - 00006CAE (0x5 bytes), align: 0
  Segment part 49.            Intra module refs:   Segment part 48
                                                   Segment part 55
    -------------------------------------------------------------------------
<BANKED_CODE> 1 (was BANKED_CODE)
  Relative segment, address: CODE 00006CAF - 00006CB7 (0x9 bytes), align: 0
  Segment part 50.            Intra module refs:   Segment part 49
                                                   _formatted_write_P
    -------------------------------------------------------------------------
<BANKED_CODE> 1 (was BANKED_CODE)
  Relative segment, address: CODE 00006CB8 - 00006CBD (0x6 bytes), align: 0
  Segment part 51.            Intra module refs:   _formatted_write_P
    -------------------------------------------------------------------------
<BANKED_CODE> 1 (was BANKED_CODE)
  Relative segment, address: CODE 00006CBE - 00006CC7 (0xa bytes), align: 0
  Segment part 52.            Intra module refs:   _formatted_write_P
    -------------------------------------------------------------------------
<BANKED_CODE> 1 (was BANKED_CODE)
  Relative segment, address: CODE 00006CC8 - 00006CCC (0x5 bytes), align: 0
  Segment part 53.            Intra module refs:   _formatted_write_P
                                                   float_conversion
    -------------------------------------------------------------------------
<BANKED_CODE> 1 (was BANKED_CODE)
  Relative segment, address: CODE 00006CCD - 00006CD0 (0x4 bytes), align: 0
  Segment part 54.            Intra module refs:   _formatted_write_P
    -------------------------------------------------------------------------
<BANKED_CODE> 1 (was BANKED_CODE)
  Relative segment, address: CODE 00006CD1 - 00006CD6 (0x6 bytes), align: 0
  Segment part 55.            Intra module refs:   _formatted_write_P
    -------------------------------------------------------------------------
<BANKED_CODE> 1 (was BANKED_CODE)
  Relative segment, address: CODE 00006CD7 - 00006CDA (0x4 bytes), align: 0
  Segment part 56.            Intra module refs:   _formatted_write_P
                                                   float_conversion
    -------------------------------------------------------------------------
<BANKED_CODE> 1 (was BANKED_CODE)
  Relative segment, address: CODE 00006CDB - 00006CE1 (0x7 bytes), align: 0
  Segment part 57.            Intra module refs:   _formatted_write_P
    -------------------------------------------------------------------------
<BANKED_CODE> 1 (was BANKED_CODE)
  Relative segment, address: CODE 00006CE2 - 00006CE9 (0x8 bytes), align: 0
  Segment part 58.            Intra module refs:   _formatted_write_P
    -------------------------------------------------------------------------
<BANKED_CODE> 1 (was BANKED_CODE)
  Relative segment, address: CODE 00006CEA - 00006CEF (0x6 bytes), align: 0
  Segment part 59.            Intra module refs:   Segment part 69
                                                   Segment part 79
    -------------------------------------------------------------------------
<BANKED_CODE> 1 (was BANKED_CODE)
  Relative segment, address: CODE 00006CF0 - 00006CF3 (0x4 bytes), align: 0
  Segment part 60.            Intra module refs:   Segment part 56
                                                   Segment part 57
                                                   Segment part 58
                                                   Segment part 59
    -------------------------------------------------------------------------
<BANKED_CODE> 1 (was BANKED_CODE)
  Relative segment, address: CODE 00006CF4 - 00006CFC (0x9 bytes), align: 0
  Segment part 61.            Intra module refs:   Segment part 60
                                                   Segment part 65
    -------------------------------------------------------------------------
<BANKED_CODE> 1 (was BANKED_CODE)
  Relative segment, address: CODE 00006CFD - 00006D00 (0x4 bytes), align: 0
  Segment part 62.            Intra module refs:   _formatted_write_P
    -------------------------------------------------------------------------
<BANKED_CODE> 1 (was BANKED_CODE)
  Relative segment, address: CODE 00006D01 - 00006D09 (0x9 bytes), align: 0
  Segment part 63.            Intra module refs:   Segment part 62
                                                   Segment part 75
    -------------------------------------------------------------------------
<BANKED_CODE> 1 (was BANKED_CODE)
  Relative segment, address: CODE 00006D0A - 00006D0D (0x4 bytes), align: 0
  Segment part 64.            Intra module refs:   _formatted_write_P
    -------------------------------------------------------------------------
<BANKED_CODE> 1 (was BANKED_CODE)
  Relative segment, address: CODE 00006D0E - 00006D18 (0xb bytes), align: 0
  Segment part 65.            Intra module refs:   Segment part 64
                                                   Segment part 66
    -------------------------------------------------------------------------
<BANKED_CODE> 1 (was BANKED_CODE)
  Relative segment, address: CODE 00006D19 - 00006D24 (0xc bytes), align: 0
  Segment part 66.            Intra module refs:   _formatted_write_P
    -------------------------------------------------------------------------
<BANKED_CODE> 1 (was BANKED_CODE)
  Relative segment, address: CODE 00006D25 - 00006D2A (0x6 bytes), align: 0
  Segment part 67.            Intra module refs:   Segment part 23
                                                   Segment part 24
    -------------------------------------------------------------------------
<BANKED_CODE> 1 (was BANKED_CODE)
  Relative segment, address: CODE 00006D2B - 00006D30 (0x6 bytes), align: 0
  Segment part 68.            Intra module refs:   Segment part 47
                                                   Segment part 53
                                                   Segment part 66
                                                   Segment part 67
    -------------------------------------------------------------------------
<BANKED_CODE> 1 (was BANKED_CODE)
  Relative segment, address: CODE 00006D31 - 00006D36 (0x6 bytes), align: 0
  Segment part 69.            Intra module refs:   _formatted_write_P
    -------------------------------------------------------------------------
<BANKED_CODE> 1 (was BANKED_CODE)
  Relative segment, address: CODE 00006D37 - 00006D3E (0x8 bytes), align: 0
  Segment part 70.            Intra module refs:   _formatted_write_P
    -------------------------------------------------------------------------
<BANKED_CODE> 1 (was BANKED_CODE)
  Relative segment, address: CODE 00006D3F - 00006D44 (0x6 bytes), align: 0
  Segment part 71.            Intra module refs:   Segment part 70
                                                   _formatted_write_P
    -------------------------------------------------------------------------
<BANKED_CODE> 1 (was BANKED_CODE)
  Relative segment, address: CODE 00006D45 - 00006D4C (0x8 bytes), align: 0
  Segment part 72.            Intra module refs:   _formatted_write_P
    -------------------------------------------------------------------------
<BANKED_CODE> 1 (was BANKED_CODE)
  Relative segment, address: CODE 00006D4D - 00006D54 (0x8 bytes), align: 0
  Segment part 73.            Intra module refs:   _formatted_write_P
    -------------------------------------------------------------------------
<BANKED_CODE> 1 (was BANKED_CODE)
  Relative segment, address: CODE 00006D55 - 00006D58 (0x4 bytes), align: 0
  Segment part 74.            Intra module refs:   _formatted_write_P
    -------------------------------------------------------------------------
<BANKED_CODE> 1 (was BANKED_CODE)
  Relative segment, address: CODE 00006D59 - 00006D67 (0xf bytes), align: 0
  Segment part 75.            Intra module refs:   Segment part 74
                                                   Segment part 76
    -------------------------------------------------------------------------
<BANKED_CODE> 1 (was BANKED_CODE)
  Relative segment, address: CODE 00006D68 - 00006D6C (0x5 bytes), align: 0
  Segment part 76.            Intra module refs:   _formatted_write_P
    -------------------------------------------------------------------------
<BANKED_CODE> 1 (was BANKED_CODE)
  Relative segment, address: CODE 00006D6D - 00006D70 (0x4 bytes), align: 0
  Segment part 77.            Intra module refs:   _formatted_write_P
    -------------------------------------------------------------------------
<BANKED_CODE> 1 (was BANKED_CODE)
  Relative segment, address: CODE 00006D71 - 00006D77 (0x7 bytes), align: 0
  Segment part 78.            Intra module refs:   Segment part 77
                                                   _formatted_write_P
    -------------------------------------------------------------------------
<BANKED_CODE> 1 (was BANKED_CODE)
  Relative segment, address: CODE 00006D78 - 00006D7E (0x7 bytes), align: 0
  Segment part 79.            Intra module refs:   _formatted_write_P
    -------------------------------------------------------------------------
<BANKED_CODE> 1 (was BANKED_CODE)
  Relative segment, address: CODE 00006D7F - 00006D84 (0x6 bytes), align: 0
  Segment part 80.            Intra module refs:   float_conversion
    -------------------------------------------------------------------------
<BANKED_CODE> 1 (was BANKED_CODE)
  Relative segment, address: CODE 00006D85 - 00006D87 (0x3 bytes), align: 0
  Segment part 81.            Intra module refs:   Segment part 80
                                                   _formatted_write_P
    -------------------------------------------------------------------------
<BANKED_CODE> 1 (was BANKED_CODE)
  Relative segment, address: CODE 00006D88 - 00006D8E (0x7 bytes), align: 0
  Segment part 82.            Intra module refs:   Segment part 81
                                                   float_conversion
    -------------------------------------------------------------------------
<BANKED_CODE> 1 (was BANKED_CODE)
  Relative segment, address: CODE 00006D8F - 00006D92 (0x4 bytes), align: 0
  Segment part 83.            Intra module refs:   _formatted_write_P
    -------------------------------------------------------------------------
<BANKED_CODE> 1 (was BANKED_CODE)
  Relative segment, address: CODE 00006D93 - 00006DA1 (0xf bytes), align: 0
  Segment part 84.            Intra module refs:   Segment part 83
                                                   Segment part 86
    -------------------------------------------------------------------------
<BANKED_CODE> 1 (was BANKED_CODE)
  Relative segment, address: CODE 00006DA2 - 00006DAD (0xc bytes), align: 0
  Segment part 85.            Intra module refs:   Segment part 54
                                                   Segment part 84
    -------------------------------------------------------------------------
<BANKED_CODE> 1 (was BANKED_CODE)
  Relative segment, address: CODE 00006DAE - 00006DB9 (0xc bytes), align: 0
  Segment part 86.            Intra module refs:   _formatted_write_P
    -------------------------------------------------------------------------
BANK_RELAYS
  Relative segment, address: CODE 0000057C - 00000581 (0x6 bytes), align: 0
  Segment part 19.            Intra module refs:   _formatted_write_P
           LOCAL                   ADDRESS         
           =====                   =======         
           float_conversion::?relay
                                   0000057C 
    -------------------------------------------------------------------------
BANK_RELAYS
  Relative segment, address: CODE 00000582 - 00000587 (0x6 bytes), align: 0
  Segment part 38.
           ENTRY                   ADDRESS         REF BY
           =====                   =======         ======
           _formatted_write_P::?relay
                                   00000582        printf_P (?printf_p)
    -------------------------------------------------------------------------
CODE_C
  Relative segment, address: CODE 00001D0C - 00001D1A (0xf bytes), align: 0
  Segment part 6.             Intra module refs:   _formatted_write_P
    -------------------------------------------------------------------------
CODE_C
  Relative segment, address: CODE 00001D1B - 00001D1E (0x4 bytes), align: 0
  Segment part 7.             Intra module refs:   _formatted_write_P
    -------------------------------------------------------------------------
CODE_C
  Relative segment, address: CODE 00001D1F - 00001D2F (0x11 bytes), align: 0
  Segment part 8.             Intra module refs:   _formatted_write_P
    -------------------------------------------------------------------------
CODE_C
  Relative segment, address: CODE 00001D30 - 00001D40 (0x11 bytes), align: 0
  Segment part 9.             Intra module refs:   _formatted_write_P
    -------------------------------------------------------------------------
CODE_C
  Relative segment, address: CODE 00001D41 - 00001D44 (0x4 bytes), align: 0
  Segment part 10.            Intra module refs:   float_conversion
           ENTRY                   ADDRESS         REF BY
           =====                   =======         ======
           __Constant_7f800000     00001D41 
    -------------------------------------------------------------------------
CODE_C
  Relative segment, address: CODE 00001D45 - 00001D48 (0x4 bytes), align: 0
  Segment part 11.            Intra module refs:   float_conversion
           ENTRY                   ADDRESS         REF BY
           =====                   =======         ======
           __Constant_3f800000     00001D45 
    -------------------------------------------------------------------------
CODE_C
  Relative segment, address: CODE 00001D49 - 00001D4C (0x4 bytes), align: 0
  Segment part 12.            Intra module refs:   _formatted_write_P
                                                   float_conversion
           ENTRY                   ADDRESS         REF BY
           =====                   =======         ======
           __Constant_0            00001D49 
    -------------------------------------------------------------------------
CODE_C
  Relative segment, address: CODE 00001D4D - 00001D50 (0x4 bytes), align: 0
  Segment part 13.            Intra module refs:   float_conversion
           ENTRY                   ADDRESS         REF BY
           =====                   =======         ======
           __Constant_501502f9     00001D4D 
    -------------------------------------------------------------------------
CODE_C
  Relative segment, address: CODE 00001D51 - 00001D54 (0x4 bytes), align: 0
  Segment part 14.            Intra module refs:   float_conversion
           ENTRY                   ADDRESS         REF BY
           =====                   =======         ======
           __Constant_51ba43b7     00001D51 
    -------------------------------------------------------------------------
CODE_C
  Relative segment, address: CODE 00001D55 - 00001D58 (0x4 bytes), align: 0
  Segment part 15.            Intra module refs:   float_conversion
           ENTRY                   ADDRESS         REF BY
           =====                   =======         ======
           __Constant_41200000     00001D55 
    -------------------------------------------------------------------------
CODE_C
  Relative segment, address: CODE 00001D59 - 00001D5C (0x4 bytes), align: 0
  Segment part 16.            Intra module refs:   float_conversion
           ENTRY                   ADDRESS         REF BY
           =====                   =======         ======
           __Constant_2edbe700     00001D59 
    -------------------------------------------------------------------------
CODE_C
  Relative segment, address: CODE 00001D5D - 00001D60 (0x4 bytes), align: 0
  Segment part 17.            Intra module refs:   float_conversion
           ENTRY                   ADDRESS         REF BY
           =====                   =======         ======
           __Constant_40a00000     00001D5D 

    -------------------------------------------------------------------------
  LIBRARY MODULE, NAME : ?memcpy

  SEGMENTS IN THE MODULE
  ======================
<BANKED_CODE> 1 (was BANKED_CODE)
  Relative segment, address: CODE 00006E58 - 00006E9D (0x46 bytes), align: 0
  Segment part 6.             Intra module refs:   memcpy::?relay
           ENTRY                   ADDRESS         REF BY
           =====                   =======         ======
           memcpy                  00006E58 
               XSTACK = 00000002 ( 0000000A )
               ISTACK = 00000000 ( 00000001 )
    -------------------------------------------------------------------------
BANK_RELAYS
  Relative segment, address: CODE 00000588 - 0000058D (0x6 bytes), align: 0
  Segment part 7.
           ENTRY                   ADDRESS         REF BY
           =====                   =======         ======
           memcpy::?relay          00000588        AES_StreamCoder (action_manager)
                                                   cmd_0x04 (action_manager)
                                                   cmd_0x05 (action_manager)

    -------------------------------------------------------------------------
  LIBRARY MODULE, NAME : ?memset

  SEGMENTS IN THE MODULE
  ======================
<BANKED_CODE> 1 (was BANKED_CODE)
  Relative segment, address: CODE 00006E9E - 00006EC9 (0x2c bytes), align: 0
  Segment part 6.             Intra module refs:   memset::?relay
           ENTRY                   ADDRESS         REF BY
           =====                   =======         ======
           memset                  00006E9E 
               XSTACK = 00000002 ( 00000000 )
               ISTACK = 00000000 ( 00000002 )
    -------------------------------------------------------------------------
BANK_RELAYS
  Relative segment, address: CODE 0000058E - 00000593 (0x6 bytes), align: 0
  Segment part 7.
           ENTRY                   ADDRESS         REF BY
           =====                   =======         ======
           memset::?relay          0000058E        AES_StreamCoder (action_manager)

    -------------------------------------------------------------------------
  LIBRARY MODULE, NAME : ?printf_p

  SEGMENTS IN THE MODULE
  ======================
<BANKED_CODE> 1 (was BANKED_CODE)
  Relative segment, address: CODE 00006DBA - 00006DC9 (0x10 bytes), align: 0
  Segment part 6.             Intra module refs:   put_one_char::?relay
           LOCAL                   ADDRESS         
           =====                   =======         
           put_one_char            00006DBA 
               calls direct, is indirectly called
               ISTACK = 00000000 ( 00000001 )
    -------------------------------------------------------------------------
<BANKED_CODE> 1 (was BANKED_CODE)
  Relative segment, address: CODE 00006DCA - 00006E10 (0x47 bytes), align: 0
  Segment part 8.             Intra module refs:   printf_P::?relay
           ENTRY                   ADDRESS         REF BY
           =====                   =======         ======
           printf_P                00006DCA 
               calls direct
               XSTACK = 00000000 ( 00000010 )
    -------------------------------------------------------------------------
BANK_RELAYS
  Relative segment, address: CODE 00000594 - 00000599 (0x6 bytes), align: 0
  Segment part 7.             Intra module refs:   printf_P
           LOCAL                   ADDRESS         
           =====                   =======         
           put_one_char::?relay    00000594 
    -------------------------------------------------------------------------
BANK_RELAYS
  Relative segment, address: CODE 0000059A - 0000059F (0x6 bytes), align: 0
  Segment part 9.
           ENTRY                   ADDRESS         REF BY
           =====                   =======         ======
           printf_P::?relay        0000059A        AM_Callback (action_manager)
                                                   AM_Cold_start (action_manager)
                                                   AM_HW_Init (action_manager)
                                                   AM_Hot_start (action_manager)
                                                   AM_IRQ_Init (action_manager)
                                                   AM_SW_Init (action_manager)
                                                   AT_set_alarm (action_manager)
                                                   AT_set_time (action_manager)
                                                   AT_wait (action_manager)
                                                   Hot_Start (action_manager)
                                                   LLC_add_tx_frame (action_manager)
                                                   LLC_close_slot (action_manager)
                                                   LLC_open_slot (action_manager)
                                                   MAC_Receive (action_manager)
                                                   Neocore_start (action_manager)
                                                   RI_Receive (action_manager)
                                                   RI_Send (action_manager)
                                                   RI_Send_time (action_manager)
                                                   TM_ClrAlarm (action_manager)
                                                   TM_SetAlarm (action_manager)
                                                   _recv_frame (action_manager)
                                                   _send_frame (action_manager)
                                                   cmd_0x00 (action_manager)
                                                   cmd_0x01 (action_manager)
                                                   cmd_0x03 (action_manager)
                                                   cmd_0x04 (action_manager)
                                                   cmd_0x05 (action_manager)
                                                   cmd_0x06 (action_manager)
                                                   cmd_0x07 (action_manager)
                                                   cmd_0x08 (action_manager)
                                                   cmd_0x0B (action_manager)
                                                   cmd_0x0C (action_manager)
                                                   cmd_0x0D (action_manager)
                                                   cmd_0x0E (action_manager)
                                                   cmd_0x0F (action_manager)
                                                   cmd_0x10 (action_manager)
                                                   cmd_0x11 (action_manager)
                                                   main (action_manager)
                                                   mode_1_process (action_manager)
                                                   mode_1_receive_process (action_manager)
                                                   pre_init (action_manager)
                                                   recv_sync (action_manager)
                                                   scheduler_rx (action_manager)
                                                   scheduler_tx (action_manager)
                                                   send_sync (action_manager)
                                                   setFreq (action_manager)
                                                   stream_write (action_manager)
                                                   syncronize_timer (action_manager)
                                                   transmite (action_manager)

    -------------------------------------------------------------------------
  LIBRARY MODULE, NAME : ?rand

  SEGMENTS IN THE MODULE
  ======================
XDATA_I
  Relative segment, address: XDATA 000013C1 - 000013C4 (0x4 bytes), align: 0
  Segment part 6.             Intra module refs:   rand
           ENTRY                   ADDRESS         REF BY
           =====                   =======         ======
           __next_rand             000013C1        srand (?srand)
    -------------------------------------------------------------------------
<BANKED_CODE> 1 (was BANKED_CODE)
  Relative segment, address: CODE 00006E11 - 00006E57 (0x47 bytes), align: 0
  Segment part 10.            Intra module refs:   rand::?relay
           ENTRY                   ADDRESS         REF BY
           =====                   =======         ======
           rand                    00006E11 
               XSTACK = 00000000 ( 00000010 )
    -------------------------------------------------------------------------
XDATA_ID
  Relative segment, address: CODE 000001A0 - 000001A3 (0x4 bytes), align: 0
  Segment part 7.             Intra module refs:   __next_rand
    -------------------------------------------------------------------------
CODE_C
  Relative segment, address: CODE 00001D61 - 00001D64 (0x4 bytes), align: 0
  Segment part 8.             Intra module refs:   rand
           ENTRY                   ADDRESS         REF BY
           =====                   =======         ======
           __Constant_41c64e6d     00001D61 
    -------------------------------------------------------------------------
CODE_C
  Relative segment, address: CODE 00001D65 - 00001D68 (0x4 bytes), align: 0
  Segment part 9.             Intra module refs:   rand
           ENTRY                   ADDRESS         REF BY
           =====                   =======         ======
           __Constant_3039         00001D65 
    -------------------------------------------------------------------------
BANK_RELAYS
  Relative segment, address: CODE 000005A0 - 000005A5 (0x6 bytes), align: 0
  Segment part 11.
           ENTRY                   ADDRESS         REF BY
           =====                   =======         ======
           rand::?relay            000005A0        _throw_dice (action_manager)
                                                   random_core_init (action_manager)

    -------------------------------------------------------------------------
  LIBRARY MODULE, NAME : ?srand

  SEGMENTS IN THE MODULE
  ======================
<BANKED_CODE> 1 (was BANKED_CODE)
  Relative segment, address: CODE 00006ECA - 00006EE1 (0x18 bytes), align: 0
  Segment part 6.             Intra module refs:   srand::?relay
           ENTRY                   ADDRESS         REF BY
           =====                   =======         ======
           srand                   00006ECA 
               ISTACK = 00000000 ( 00000002 )
    -------------------------------------------------------------------------
BANK_RELAYS
  Relative segment, address: CODE 000005A6 - 000005AB (0x6 bytes), align: 0
  Segment part 7.
           ENTRY                   ADDRESS         REF BY
           =====                   =======         ======
           srand::?relay           000005A6        random_core_init (action_manager)




                ****************************************
                *                                      *
                *      SEGMENTS IN ADDRESS ORDER       *
                *                                      *
                ****************************************


SEGMENT              SPACE    START ADDRESS   END ADDRESS     SIZE  TYPE  ALIGN
=======              =====    =============   ===========     ====  ====  =====
INTVEC               CODE          00000000 - 0000002D          2E   com    0
CSTART               CODE          0000002E - 000000B4          87   rel    0
IDATA_ID             CODE               000000B5                     dse    0
BIT_ID               CODE               000000B5                     dse    0
BDATA_ID             CODE               000000B5                     dse    0
IXDATA_ID            CODE               000000B5                     dse    0
PDATA_ID             CODE               000000B5                     dse    0
DATA_ID              CODE               000000B5                     dse    0
XDATA_ID             CODE          000000B5 - 000001A3          EF   rel    0
BANK_RELAYS          CODE          000001A4 - 000005AB         408   rel    0
RCODE                CODE          000005AC - 00001444         E99   rel    0
DIFUNCT              CODE               00001445                     dse    0
CODE_C               CODE          00001445 - 00001D68         924   rel    0
CODE_N               CODE               00001D69                     dse    0
NEAR_CODE            CODE          00001D69 - 00001D97          2F   rel    0
<BANKED_CODE> 1      CODE          00001D98 - 00006EE1        514A   rel    0
REGISTERS            DATA          00000000 - 00000007           8   rel    0
VREG                 DATA          00000008 - 0000000F           8   rel    0
PSP                  DATA          00000010 - 00000010           1   rel    0
XSP                  DATA          00000011 - 00000012           2   rel    0
BREG                 BIT        00000020.0  -  00000020.7        8   rel    0
SFR_AN               DATA          00000086 - 00000087           2   rel    0
                     DATA          00000090 - 00000091           2 
                     DATA          00000094 - 00000097           4 
                     DATA          0000009D - 0000009E           2 
                     DATA          000000A2 - 000000A5           4 
                     DATA          000000A8 - 000000A8           1 
                     DATA          000000AD - 000000AD           1 
                     DATA          000000B3 - 000000B3           1 
                     DATA          000000BE - 000000BE           1 
                     DATA          000000C0 - 000000C2           3 
                     DATA          000000C5 - 000000C6           2 
                     DATA          000000D2 - 000000D7           6 
                     DATA          000000D9 - 000000D9           1 
                     DATA          000000E1 - 000000E1           1 
                     DATA          000000E9 - 000000E9           1 
                     DATA          000000F1 - 000000F1           1 
                     DATA          000000F3 - 000000F4           2 
                     DATA          000000F8 - 000000FA           3 
                     DATA          000000FC - 000000FC           1 
                     DATA          000000FE - 000000FE           1 
XSTACK               XDATA         00000001 - 00000300         300   rel    0
XDATA_Z              XDATA         00000301 - 000012D5         FD5   rel    0
XDATA_I              XDATA         000012D6 - 000013C4          EF   rel    0
PDATA_Z              XDATA              00001E00                     dse    0
PSTACK               XDATA         00001E00 - 00001E7F          80   rel    0
ISTACK               IDATA         00000080 - 000000FF          80   rel    0

                ****************************************
                *                                      *
                *        END OF CROSS REFERENCE        *
                *                                      *
                ****************************************

 28 386 bytes of CODE  memory
     19 bytes of DATA  memory (+ 40 absolute )
  5 188 bytes of XDATA memory
    128 bytes of IDATA memory
      8 bits  of BIT   memory

Errors: none
Warnings: none

